
pacemaker.elf:     file format elf32-littlenios2
pacemaker.elf
architecture: nios2:r1, flags 0x00000112:
EXEC_P, HAS_SYMS, D_PAGED
start address 0x00800244

Program Header:
    LOAD off    0x00001000 vaddr 0x00800000 paddr 0x00800000 align 2**12
         filesz 0x00000020 memsz 0x00000020 flags r-x
    LOAD off    0x00001020 vaddr 0x00800020 paddr 0x00800020 align 2**12
         filesz 0x0000d0c0 memsz 0x0000d0c0 flags r-x
    LOAD off    0x0000e0e0 vaddr 0x0080d0e0 paddr 0x0080ed58 align 2**12
         filesz 0x00001c78 memsz 0x00001c78 flags rw-
    LOAD off    0x000109d0 vaddr 0x008109d0 paddr 0x008109d0 align 2**12
         filesz 0x00000000 memsz 0x00000348 flags rw-

Sections:
Idx Name          Size      VMA       LMA       File off  Algn
  0 .entry        00000020  00800000  00800000  00001000  2**5
                  CONTENTS, ALLOC, LOAD, READONLY, CODE
  1 .exceptions   00000224  00800020  00800020  00001020  2**2
                  CONTENTS, ALLOC, LOAD, READONLY, CODE
  2 .text         0000caa0  00800244  00800244  00001244  2**2
                  CONTENTS, ALLOC, LOAD, READONLY, CODE
  3 .rodata       000003fc  0080cce4  0080cce4  0000dce4  2**2
                  CONTENTS, ALLOC, LOAD, READONLY, DATA
  4 .rwdata       00001c78  0080d0e0  0080ed58  0000e0e0  2**2
                  CONTENTS, ALLOC, LOAD, DATA, SMALL_DATA
  5 .bss          00000348  008109d0  008109d0  000109d0  2**2
                  ALLOC, SMALL_DATA
  6 .sdram        00000000  00810d18  00810d18  0000fd58  2**0
                  CONTENTS
  7 .onchip_mem   00000000  01008000  01008000  0000fd58  2**0
                  CONTENTS
  8 .comment      00000023  00000000  00000000  0000fd58  2**0
                  CONTENTS, READONLY
  9 .debug_aranges 00000c80  00000000  00000000  0000fd80  2**3
                  CONTENTS, READONLY, DEBUGGING
 10 .debug_info   0001b3bb  00000000  00000000  00010a00  2**0
                  CONTENTS, READONLY, DEBUGGING
 11 .debug_abbrev 00007658  00000000  00000000  0002bdbb  2**0
                  CONTENTS, READONLY, DEBUGGING
 12 .debug_line   00009464  00000000  00000000  00033413  2**0
                  CONTENTS, READONLY, DEBUGGING
 13 .debug_frame  00001eec  00000000  00000000  0003c878  2**2
                  CONTENTS, READONLY, DEBUGGING
 14 .debug_str    00003992  00000000  00000000  0003e764  2**0
                  CONTENTS, READONLY, DEBUGGING
 15 .debug_loc    00007ba8  00000000  00000000  000420f6  2**0
                  CONTENTS, READONLY, DEBUGGING
 16 .debug_alt_sim_info 00000060  00000000  00000000  00049ca0  2**2
                  CONTENTS, READONLY, DEBUGGING
 17 .debug_ranges 00000ca8  00000000  00000000  00049d00  2**3
                  CONTENTS, READONLY, DEBUGGING
 18 .thread_model 00000003  00000000  00000000  0004ddb5  2**0
                  CONTENTS, READONLY
 19 .cpu          00000003  00000000  00000000  0004ddb8  2**0
                  CONTENTS, READONLY
 20 .qsys         00000001  00000000  00000000  0004ddbb  2**0
                  CONTENTS, READONLY
 21 .simulation_enabled 00000001  00000000  00000000  0004ddbc  2**0
                  CONTENTS, READONLY
 22 .stderr_dev   00000009  00000000  00000000  0004ddbd  2**0
                  CONTENTS, READONLY
 23 .stdin_dev    00000009  00000000  00000000  0004ddc6  2**0
                  CONTENTS, READONLY
 24 .stdout_dev   00000009  00000000  00000000  0004ddcf  2**0
                  CONTENTS, READONLY
 25 .sopc_system_name 0000000c  00000000  00000000  0004ddd8  2**0
                  CONTENTS, READONLY
 26 .quartus_project_dir 0000003a  00000000  00000000  0004dde4  2**0
                  CONTENTS, READONLY
 27 .sopcinfo     0006b17b  00000000  00000000  0004de1e  2**0
                  CONTENTS, READONLY
SYMBOL TABLE:
00800000 l    d  .entry	00000000 .entry
00800020 l    d  .exceptions	00000000 .exceptions
00800244 l    d  .text	00000000 .text
0080cce4 l    d  .rodata	00000000 .rodata
0080d0e0 l    d  .rwdata	00000000 .rwdata
008109d0 l    d  .bss	00000000 .bss
00810d18 l    d  .sdram	00000000 .sdram
01008000 l    d  .onchip_mem	00000000 .onchip_mem
00000000 l    d  .comment	00000000 .comment
00000000 l    d  .debug_aranges	00000000 .debug_aranges
00000000 l    d  .debug_info	00000000 .debug_info
00000000 l    d  .debug_abbrev	00000000 .debug_abbrev
00000000 l    d  .debug_line	00000000 .debug_line
00000000 l    d  .debug_frame	00000000 .debug_frame
00000000 l    d  .debug_str	00000000 .debug_str
00000000 l    d  .debug_loc	00000000 .debug_loc
00000000 l    d  .debug_alt_sim_info	00000000 .debug_alt_sim_info
00000000 l    d  .debug_ranges	00000000 .debug_ranges
00000000 l    df *ABS*	00000000 C:/COMPSYS303/PaceMakerAssignment/Pacemaker/NiosII/software/pacemaker_bsp//obj/HAL/src/crt0.o
0080028c l       .text	00000000 alt_after_alt_main
00000000 l    df *ABS*	00000000 alt_irq_handler.c
00000000 l    df *ABS*	00000000 alt_instruction_exception_entry.c
00000000 l    df *ABS*	00000000 main.c
008109d0 l     O .bss	00000001 APout
008109d1 l     O .bss	00000001 VPout
008109d2 l     O .bss	00000001 mode
00810a44 l     O .bss	0000011c td
008109d3 l     O .bss	00000001 ASint
008109d4 l     O .bss	00000001 VSint
00800668 l     F .text	000000a0 timer_tick_ms
0080ecf8 l     O .rwdata	00000004 RESET_TIME
008109e0 l     O .bss	00000004 VPclk
008109e4 l     O .bss	00000004 APclk
00000000 l    df *ABS*	00000000 purec.c
008109ec l     O .bss	00000004 AVICount
008109f0 l     O .bss	00000004 PVARPCount
008109f4 l     O .bss	00000004 VRPCount
008109f8 l     O .bss	00000004 AEICount
008109fc l     O .bss	00000004 LRICount
00810a00 l     O .bss	00000004 URICount
0080ecfe l     O .rwdata	00000001 initial
00810a04 l     O .bss	00000001 ASensed
00810a05 l     O .bss	00000001 VSensed
00810a06 l     O .bss	00000001 AVITimerExpired
00810a07 l     O .bss	00000001 PVARPTimerExpired
00810a08 l     O .bss	00000001 VRPTimerExpired
00810a09 l     O .bss	00000001 AEITimerExpired
00810a0a l     O .bss	00000001 LRITimerExpired
0080ecff l     O .rwdata	00000001 URITimerExpired
00810a0b l     O .bss	00000001 AVIRunning
00810a0c l     O .bss	00000001 PVARPRunning
00810a0d l     O .bss	00000001 VRPRunning
00810a0e l     O .bss	00000001 AEIRunning
00810a0f l     O .bss	00000001 LRIRunning
00810a10 l     O .bss	00000001 URIRunning
00000000 l    df *ABS*	00000000 sccharts.c
00000000 l    df *ABS*	00000000 adddf3.c
00000000 l    df *ABS*	00000000 gedf2.c
00000000 l    df *ABS*	00000000 ledf2.c
00000000 l    df *ABS*	00000000 subdf3.c
00000000 l    df *ABS*	00000000 floatsidf.c
00000000 l    df *ABS*	00000000 libgcc2.c
00000000 l    df *ABS*	00000000 libgcc2.c
00000000 l    df *ABS*	00000000 puts.c
00000000 l    df *ABS*	00000000 strlen.c
00000000 l    df *ABS*	00000000 findfp.c
00805de8 l     F .text	00000008 __fp_unlock
00805dfc l     F .text	0000019c __sinit.part.1
00805f98 l     F .text	00000008 __fp_lock
00000000 l    df *ABS*	00000000 fvwrite.c
00000000 l    df *ABS*	00000000 fwalk.c
00000000 l    df *ABS*	00000000 impure.c
0080d0e0 l     O .rwdata	00000424 impure_data
00000000 l    df *ABS*	00000000 mallocr.c
00000000 l    df *ABS*	00000000 memchr.c
00000000 l    df *ABS*	00000000 memcpy.c
00000000 l    df *ABS*	00000000 memmove.c
00000000 l    df *ABS*	00000000 memset.c
00000000 l    df *ABS*	00000000 mallocr.c
00000000 l    df *ABS*	00000000 sbrkr.c
00000000 l    df *ABS*	00000000 stdio.c
00000000 l    df *ABS*	00000000 writer.c
00000000 l    df *ABS*	00000000 wsetup.c
00000000 l    df *ABS*	00000000 closer.c
00000000 l    df *ABS*	00000000 fclose.c
00000000 l    df *ABS*	00000000 fflush.c
00000000 l    df *ABS*	00000000 mallocr.c
00000000 l    df *ABS*	00000000 int_errno.c
00000000 l    df *ABS*	00000000 lseekr.c
00000000 l    df *ABS*	00000000 makebuf.c
00000000 l    df *ABS*	00000000 readr.c
00000000 l    df *ABS*	00000000 fstatr.c
00000000 l    df *ABS*	00000000 isattyr.c
00000000 l    df *ABS*	00000000 lib2-divmod.c
00000000 l    df *ABS*	00000000 alt_alarm_start.c
00000000 l    df *ABS*	00000000 alt_close.c
00808b70 l     F .text	0000003c alt_get_errno
00000000 l    df *ABS*	00000000 alt_dev.c
00808c7c l     F .text	0000002c alt_dev_null_write
00000000 l    df *ABS*	00000000 alt_errno.c
00000000 l    df *ABS*	00000000 alt_fstat.c
00808ca8 l     F .text	0000003c alt_get_errno
00000000 l    df *ABS*	00000000 alt_irq_register.c
00000000 l    df *ABS*	00000000 alt_irq_vars.c
00000000 l    df *ABS*	00000000 alt_isatty.c
00808f14 l     F .text	0000003c alt_get_errno
00000000 l    df *ABS*	00000000 alt_load.c
00808ff4 l     F .text	00000068 alt_load_section
00000000 l    df *ABS*	00000000 alt_lseek.c
008090e0 l     F .text	0000003c alt_get_errno
00000000 l    df *ABS*	00000000 alt_main.c
00000000 l    df *ABS*	00000000 alt_malloc_lock.c
00000000 l    df *ABS*	00000000 alt_read.c
008092b4 l     F .text	0000003c alt_get_errno
00000000 l    df *ABS*	00000000 alt_release_fd.c
00000000 l    df *ABS*	00000000 alt_sbrk.c
0080ed44 l     O .rwdata	00000004 heap_end
00000000 l    df *ABS*	00000000 alt_tick.c
00000000 l    df *ABS*	00000000 alt_write.c
008096a4 l     F .text	0000003c alt_get_errno
00000000 l    df *ABS*	00000000 alt_sys_init.c
008097d8 l     F .text	00000034 alt_dev_reg
0080dab4 l     O .rwdata	00001060 jtag_uart
0080eb14 l     O .rwdata	00000120 lcd
0080ec34 l     O .rwdata	000000c4 uart
00000000 l    df *ABS*	00000000 altera_avalon_jtag_uart_fd.c
00000000 l    df *ABS*	00000000 altera_avalon_jtag_uart_init.c
00809b00 l     F .text	0000020c altera_avalon_jtag_uart_irq
00809d0c l     F .text	000000a0 altera_avalon_jtag_uart_timeout
00000000 l    df *ABS*	00000000 altera_avalon_jtag_uart_ioctl.c
00000000 l    df *ABS*	00000000 altera_avalon_jtag_uart_read.c
00000000 l    df *ABS*	00000000 altera_avalon_jtag_uart_write.c
00000000 l    df *ABS*	00000000 altera_avalon_lcd_16207.c
0080ed50 l     O .rwdata	00000004 colstart
0080a344 l     F .text	000000b8 lcd_write_command
0080a3fc l     F .text	000000d8 lcd_write_data
0080a4d4 l     F .text	000000d0 lcd_clear_screen
0080a5a4 l     F .text	000001ec lcd_repaint_screen
0080a790 l     F .text	000000cc lcd_scroll_up
0080a85c l     F .text	000002ac lcd_handle_escape
0080afe0 l     F .text	000000ac alt_lcd_16207_timeout
00000000 l    df *ABS*	00000000 altera_avalon_lcd_16207_fd.c
00000000 l    df *ABS*	00000000 altera_avalon_timer_sc.c
0080b220 l     F .text	00000078 alt_avalon_timer_sc_irq
00000000 l    df *ABS*	00000000 altera_avalon_uart_fd.c
00000000 l    df *ABS*	00000000 altera_avalon_uart_init.c
0080b4d0 l     F .text	0000009c altera_avalon_uart_irq
0080b56c l     F .text	000000e4 altera_avalon_uart_rxirq
0080b650 l     F .text	00000148 altera_avalon_uart_txirq
00000000 l    df *ABS*	00000000 altera_avalon_uart_read.c
0080b7ec l     F .text	0000003c alt_get_errno
00000000 l    df *ABS*	00000000 altera_avalon_uart_write.c
0080ba04 l     F .text	0000003c alt_get_errno
00000000 l    df *ABS*	00000000 alt_dcache_flush_all.c
00000000 l    df *ABS*	00000000 alt_dev_llist_insert.c
0080bc34 l     F .text	0000003c alt_get_errno
00000000 l    df *ABS*	00000000 alt_do_ctors.c
00000000 l    df *ABS*	00000000 alt_do_dtors.c
00000000 l    df *ABS*	00000000 alt_icache_flush_all.c
00000000 l    df *ABS*	00000000 alt_iic.c
00000000 l    df *ABS*	00000000 alt_iic_isr_register.c
00000000 l    df *ABS*	00000000 alt_io_redirect.c
0080c0a8 l     F .text	000000c4 alt_open_fd
00000000 l    df *ABS*	00000000 alt_open.c
0080c1e8 l     F .text	0000003c alt_get_errno
0080c224 l     F .text	000000c4 alt_file_locked
00000000 l    df *ABS*	00000000 alt_usleep.c
00000000 l    df *ABS*	00000000 altera_nios2_gen2_irq.c
00000000 l    df *ABS*	00000000 alt_busy_sleep.c
00000000 l    df *ABS*	00000000 alt_find_dev.c
00000000 l    df *ABS*	00000000 alt_find_file.c
00000000 l    df *ABS*	00000000 alt_get_fd.c
00000000 l    df *ABS*	00000000 alt_icache_flush.c
00000000 l    df *ABS*	00000000 atexit.c
00000000 l    df *ABS*	00000000 ctype_.c
0080cf5f l     O .rodata	00000180 _ctype_b
00000000 l    df *ABS*	00000000 exit.c
00000000 l    df *ABS*	00000000 memcmp.c
00000000 l    df *ABS*	00000000 __atexit.c
00000000 l    df *ABS*	00000000 __call_atexit.c
00000000 l    df *ABS*	00000000 alt_exit.c
00810a40 g     O .bss	00000004 alt_instruction_exception_handler
0080883c g     F .text	00000054 _isatty_r
008091f0 g     F .text	0000007c alt_main
00805c7c g     F .text	000000c0 _puts_r
00810c18 g     O .bss	00000100 alt_irq
00808564 g     F .text	00000060 _lseek_r
0080ed58 g       *ABS*	00000000 __flash_rwdata_start
00810d18 g       *ABS*	00000000 __alt_heap_start
00800a48 g     F .text	0000005c startVRPTimer
00807b18 g     F .text	0000005c __sseek
00806138 g     F .text	00000010 __sinit
0080ecfc g     O .rwdata	00000001 StartSensingAS
00805fa0 g     F .text	00000068 __sfmoreglue
00809290 g     F .text	00000024 __malloc_unlock
00807204 g     F .text	0000015c memmove
00806120 g     F .text	00000018 _cleanup
00800794 g     F .text	00000044 reset_AP
0080094c g     F .text	00000048 URI_ISR
00805070 g     F .text	000000dc .hidden __gtdf2
0080c46c g     F .text	00000024 altera_nios2_gen2_irq_init
00800000 g     F .entry	0000001c __reset
00800020 g       *ABS*	00000000 __flash_exceptions_start
008087e0 g     F .text	0000005c _fstat_r
00810a24 g     O .bss	00000004 errno
00807a94 g     F .text	00000008 __seofread
00810b88 g     O .bss	00000018 AEI_TIMER
00810a30 g     O .bss	00000004 alt_argv
00816cf8 g       *ABS*	00000000 _gp
0080c43c g     F .text	00000030 usleep
00804370 g     F .text	00000248 reset
00810ba0 g     O .bss	00000018 LRI_TIMER
0080ed04 g     O .rwdata	00000004 PVARPContext
0080d934 g     O .rwdata	00000180 alt_fd_list
0080c5e8 g     F .text	00000090 alt_find_dev
008070bc g     F .text	00000148 memcpy
00800afc g     F .text	00000058 startLRITimer
00805df0 g     F .text	0000000c _cleanup_r
00805b3c g     F .text	000000dc .hidden __floatsidf
0080c16c g     F .text	0000007c alt_io_redirect
0080514c g     F .text	000000f4 .hidden __ltdf2
0080cce4 g       *ABS*	00000000 __DTOR_END__
00805d3c g     F .text	00000014 puts
0080c8b4 g     F .text	0000009c alt_exception_cause_generated_bad_addr
008109e8 g     O .bss	00000001 VS
00809f04 g     F .text	0000021c altera_avalon_jtag_uart_read
00808988 g     F .text	00000064 .hidden __udivsi3
00808f50 g     F .text	000000a4 isatty
00810a14 g     O .bss	00000004 currentState
0080c824 g     F .text	00000090 alt_icache_flush
00810a20 g     O .bss	00000004 __malloc_top_pad
00806188 g     F .text	000004bc __sfvwrite_r
008079ec g     F .text	00000054 _sbrk_r
0080ed00 g     O .rwdata	00000004 AVIContext
00808780 g     F .text	00000060 _read_r
0080ed38 g     O .rwdata	00000004 alt_max_fd
00807d84 g     F .text	000000f0 _fclose_r
00808100 g     F .text	00000030 fflush
00810a1c g     O .bss	00000004 __malloc_max_sbrked_mem
00808d94 g     F .text	00000180 alt_irq_register
008047c4 g     F .text	000008ac .hidden __adddf3
00800290 g     F .text	00000088 uart_com
0080911c g     F .text	000000d4 lseek
0080ed18 g     O .rwdata	00000004 _global_impure_ptr
00807488 g     F .text	00000564 _realloc_r
00810d18 g       *ABS*	00000000 __bss_end
0080bfb8 g     F .text	000000f0 alt_iic_isr_register
0080959c g     F .text	00000108 alt_tick
00800628 g     F .text	00000020 stop_purec
0080b424 g     F .text	000000ac altera_avalon_uart_init
00806158 g     F .text	00000018 __fp_lock_all
0080bf6c g     F .text	0000004c alt_ic_irq_enabled
00809500 g     F .text	0000009c alt_alarm_stop
00810a28 g     O .bss	00000004 alt_irq_active
01008000 g       *ABS*	00000000 __alt_mem_onchip_mem
008000fc g     F .exceptions	000000d4 alt_irq_handler
0080d90c g     O .rwdata	00000028 alt_dev_null
0080ed14 g     O .rwdata	00000004 URIContext
0080bbec g     F .text	00000048 alt_dcache_flush_all
0080ed58 g       *ABS*	00000000 __ram_rwdata_end
0080ed30 g     O .rwdata	00000008 alt_dev_list
008096e0 g     F .text	000000f8 write
00810bb8 g     O .bss	00000018 URI_TIMER
0080d0e0 g       *ABS*	00000000 __ram_rodata_end
00808ce4 g     F .text	000000b0 fstat
0080514c g     F .text	000000f4 .hidden __ledf2
008089ec g     F .text	00000058 .hidden __umodsi3
00810d18 g       *ABS*	00000000 end
0080ab08 g     F .text	000004d8 altera_avalon_lcd_16207_write
00810bd0 g     O .bss	00000018 VRP_TIMER
0080ba40 g     F .text	000001ac altera_avalon_uart_write
00809a40 g     F .text	000000c0 altera_avalon_jtag_uart_init
008001d0 g     F .exceptions	00000074 alt_instruction_exception_entry
0080cce4 g       *ABS*	00000000 __CTOR_LIST__
01000000 g       *ABS*	00000000 __alt_stack_pointer
0080b298 g     F .text	0000007c alt_avalon_timer_sc_init
0080b374 g     F .text	00000060 altera_avalon_uart_write_fd
00805c18 g     F .text	00000064 .hidden __clzsi2
0080b3d4 g     F .text	00000050 altera_avalon_uart_close_fd
0080a120 g     F .text	00000224 altera_avalon_jtag_uart_write
00806148 g     F .text	00000004 __sfp_lock_acquire
00806fd8 g     F .text	000000e4 memchr
00800b54 g     F .text	00000058 startURITimer
00808254 g     F .text	00000310 _free_r
008109dc g     O .bss	00000004 vsr
0080cb30 g     F .text	00000180 __call_exitprocs
0080ed20 g     O .rwdata	00000004 __malloc_sbrk_base
00800244 g     F .text	0000004c _start
00810a38 g     O .bss	00000004 _alt_tick_rate
00810a3c g     O .bss	00000004 _alt_nticks
00800994 g     F .text	00000058 startAVITimer
008092f0 g     F .text	000000fc read
00809844 g     F .text	00000098 alt_sys_init
00800750 g     F .text	00000044 reset_VP
0080ca18 g     F .text	00000118 __register_exitproc
008109d8 g     O .bss	00000004 asr
00809dac g     F .text	00000068 altera_avalon_jtag_uart_close
0080d0e0 g       *ABS*	00000000 __ram_rwdata_start
0080cce4 g       *ABS*	00000000 __ram_rodata_start
00810b60 g     O .bss	00000028 __malloc_current_mallinfo
00800aa4 g     F .text	00000058 startAEITimer
008098dc g     F .text	00000060 altera_avalon_jtag_uart_read_fd
0080c780 g     F .text	000000a4 alt_get_fd
0080c490 g     F .text	00000158 alt_busy_sleep
00807d30 g     F .text	00000054 _close_r
0080c99c g     F .text	0000007c memcmp
0080999c g     F .text	00000050 altera_avalon_jtag_uart_close_fd
00810d18 g       *ABS*	00000000 __alt_stack_base
008099ec g     F .text	00000054 altera_avalon_jtag_uart_ioctl_fd
00807bdc g     F .text	00000154 __swsetup_r
008045b8 g     F .text	0000020c tick
00806008 g     F .text	00000118 __sfp
0080d504 g     O .rwdata	00000408 __malloc_av_
00806154 g     F .text	00000004 __sinit_lock_release
00807a40 g     F .text	00000054 __sread
0080c678 g     F .text	00000108 alt_find_file
0080ed08 g     O .rwdata	00000004 VRPContext
0080bc70 g     F .text	000000a4 alt_dev_llist_insert
0080926c g     F .text	00000024 __malloc_lock
00809450 g     F .text	000000b0 sbrk
008080a4 g     F .text	0000005c _fflush_r
0080081c g     F .text	00000050 PVARP_ISR
008008bc g     F .text	00000048 AEI_ISR
008109d0 g       *ABS*	00000000 __bss_start
00807360 g     F .text	00000128 memset
00800318 g     F .text	000002e0 main
00810a34 g     O .bss	00000004 alt_envp
00810a18 g     O .bss	00000004 __malloc_max_total_mem
0080993c g     F .text	00000060 altera_avalon_jtag_uart_write_fd
0080b08c g     F .text	00000134 altera_avalon_lcd_16207_init
00800708 g     F .text	00000048 init_sccharts
00807b74 g     F .text	00000008 __sclose
01000000 g       *ABS*	00000000 __alt_heap_limit
00807e74 g     F .text	00000014 fclose
008067cc g     F .text	0000080c _malloc_r
0080ed3c g     O .rwdata	00000004 alt_errno
00806644 g     F .text	000000c4 _fwalk
00808890 g     F .text	00000084 .hidden __divsi3
00808130 g     F .text	00000124 _malloc_trim_r
0080cce4 g       *ABS*	00000000 __CTOR_END__
0080cce4 g       *ABS*	00000000 __flash_rodata_start
0080cce4 g       *ABS*	00000000 __DTOR_LIST__
00800904 g     F .text	00000048 LRI_ISR
0080980c g     F .text	00000038 alt_irq_init
008093ec g     F .text	00000064 alt_release_fd
0080cd11 g     O .rodata	00000100 .hidden __clz_tab
0080c950 g     F .text	00000014 atexit
00807b7c g     F .text	00000060 _write_r
0080ecfd g     O .rwdata	00000001 StartSensingVS
0080ed1c g     O .rwdata	00000004 _impure_ptr
00810a2c g     O .bss	00000004 alt_argc
00807e88 g     F .text	0000021c __sflush_r
0080bd74 g     F .text	00000060 _do_dtors
00800020 g       .exceptions	00000000 alt_irq_entry
00806170 g     F .text	00000018 __fp_unlock_all
0080b1c0 g     F .text	00000060 altera_avalon_lcd_16207_write_fd
0080ed28 g     O .rwdata	00000008 alt_fs_list
00800648 g     F .text	00000020 init_purec
008109e9 g     O .bss	00000001 VP
00800020 g       *ABS*	00000000 __ram_exceptions_start
0080ed0c g     O .rwdata	00000004 AEIContext
0080be08 g     F .text	00000050 alt_ic_isr_register
0080ed58 g       *ABS*	00000000 _edata
0080b314 g     F .text	00000060 altera_avalon_uart_read_fd
00810d18 g       *ABS*	00000000 _end
00800244 g       *ABS*	00000000 __ram_exceptions_end
00809e14 g     F .text	000000f0 altera_avalon_jtag_uart_ioctl
0080bee0 g     F .text	0000008c alt_ic_irq_disable
00807a9c g     F .text	0000007c __swrite
00800bac g     F .text	000004e0 pacemaker
0080ed24 g     O .rwdata	00000004 __malloc_trim_threshold
0080c964 g     F .text	00000038 exit
00810be8 g     O .bss	00000018 PVARP_TIMER
00806708 g     F .text	000000c4 _fwalk_reent
008109ea g     O .bss	00000001 AS
00808914 g     F .text	00000074 .hidden __modsi3
0080108c g     F .text	000032e4 logic
0080ed54 g     O .rwdata	00000004 __ctype_ptr__
01000000 g       *ABS*	00000000 __alt_data_end
00800020 g     F .exceptions	00000000 alt_exception
0080614c g     F .text	00000004 __sfp_lock_release
00800000 g       *ABS*	00000000 __alt_mem_sdram
0080ce5e g     O .rodata	00000101 _ctype_
0080b798 g     F .text	00000054 altera_avalon_uart_close
0080ccb0 g     F .text	00000034 _exit
00808a44 g     F .text	0000012c alt_alarm_start
008085c4 g     F .text	000001bc __smakebuf_r
008109eb g     O .bss	00000001 AP
00810c00 g     O .bss	00000018 AVI_TIMER
00805d50 g     F .text	00000098 strlen
0080c2e8 g     F .text	00000154 open
00805070 g     F .text	000000dc .hidden __gedf2
008009ec g     F .text	0000005c startPVARPTimer
0080bdd4 g     F .text	00000034 alt_icache_flush_all
008007d8 g     F .text	00000044 AVI_ISR
0080ed10 g     O .rwdata	00000004 LRIContext
0080086c g     F .text	00000050 VRP_ISR
0080ed40 g     O .rwdata	00000004 alt_priority_mask
0080be58 g     F .text	00000088 alt_ic_irq_enable
0080b828 g     F .text	000001dc altera_avalon_uart_read
00805240 g     F .text	000008fc .hidden __subdf3
008005f8 g     F .text	00000030 start_purec
0080ed48 g     O .rwdata	00000008 alt_alarm_list
0080bd14 g     F .text	00000060 _do_ctors
00808bac g     F .text	000000d0 close
0080905c g     F .text	00000084 alt_load
00806150 g     F .text	00000004 __sinit_lock_acquire



Disassembly of section .entry:

00800000 <__reset>:
#if NIOS2_ICACHE_SIZE > 0 && defined(ALT_ALLOW_CODE_AT_RESET) && (!defined(ALT_SIM_OPTIMIZE) || defined(NIOS2_ECC_PRESENT))
    /* Assume the instruction cache size is always a power of two. */
#if NIOS2_ICACHE_SIZE > 0x8000
    movhi r2, %hi(NIOS2_ICACHE_SIZE)
#else
    movui r2, NIOS2_ICACHE_SIZE
  800000:	00840014 	movui	r2,4096
#endif

0:
    initi r2
  800004:	1001483a 	initi	r2
    addi r2, r2, -NIOS2_ICACHE_LINE_SIZE
  800008:	10bff804 	addi	r2,r2,-32
    bgt r2, zero, 0b
  80000c:	00bffd16 	blt	zero,r2,800004 <__alt_mem_onchip_mem+0xff7f8004>
 * Jump to the _start entry point in the .text section if reset code
 * is allowed or if optimizing for RTL simulation.
 */
#if defined(ALT_ALLOW_CODE_AT_RESET) || defined(ALT_SIM_OPTIMIZE)
    /* Jump to the _start entry point in the .text section. */
    movhi r1, %hi(_start)
  800010:	00402034 	movhi	at,128
    ori r1, r1, %lo(_start)
  800014:	08409114 	ori	at,at,580
    jmp r1
  800018:	0800683a 	jmp	at
  80001c:	00000000 	call	0 <__alt_mem_sdram-0x800000>

Disassembly of section .exceptions:

00800020 <alt_exception>:

#else /* ALT_EXCEPTION_STACK disabled */
        /* 
         * Reserve space on normal stack for registers about to be pushed.
         */
        addi  sp, sp, -76
  800020:	deffed04 	addi	sp,sp,-76
         * documentation for details).
         *
         * Leave a gap in the stack frame at 4(sp) for the muldiv handler to
         * store zero into.
         */
        stw   ra,  0(sp)
  800024:	dfc00015 	stw	ra,0(sp)
        stw   r1,   8(sp)
  800028:	d8400215 	stw	at,8(sp)
        stw   r2,  12(sp)
  80002c:	d8800315 	stw	r2,12(sp)
        stw   r3,  16(sp)
  800030:	d8c00415 	stw	r3,16(sp)
        stw   r4,  20(sp)
  800034:	d9000515 	stw	r4,20(sp)
        stw   r5,  24(sp)
  800038:	d9400615 	stw	r5,24(sp)
        stw   r6,  28(sp)
  80003c:	d9800715 	stw	r6,28(sp)
        stw   r7,  32(sp)
  800040:	d9c00815 	stw	r7,32(sp)
        rdctl r5, estatus   /* Read early to avoid usage stall */
  800044:	000b307a 	rdctl	r5,estatus
        stw   r8,  36(sp)
  800048:	da000915 	stw	r8,36(sp)
        stw   r9,  40(sp)
  80004c:	da400a15 	stw	r9,40(sp)
        stw   r10, 44(sp)
  800050:	da800b15 	stw	r10,44(sp)
        stw   r11, 48(sp)
  800054:	dac00c15 	stw	r11,48(sp)
        stw   r12, 52(sp)
  800058:	db000d15 	stw	r12,52(sp)
        stw   r13, 56(sp)
  80005c:	db400e15 	stw	r13,56(sp)
        stw   r14, 60(sp)
  800060:	db800f15 	stw	r14,60(sp)
        stw   r15, 64(sp)
  800064:	dbc01015 	stw	r15,64(sp)
        /*
         * ea-4 contains the address of the instruction being executed
         * when the exception occured. For interrupt exceptions, we will
         * will be re-issue the isntruction. Store it in 72(sp)
         */
        stw   r5,  68(sp)  /* estatus */
  800068:	d9401115 	stw	r5,68(sp)
        addi  r15, ea, -4  /* instruction that caused exception */
  80006c:	ebffff04 	addi	r15,ea,-4
        stw   r15,  72(sp)
  800070:	dbc01215 	stw	r15,72(sp)
#else
        /*
         * Test to see if the exception was a software exception or caused 
         * by an external interrupt, and vector accordingly.
         */
        rdctl r4, ipending
  800074:	0009313a 	rdctl	r4,ipending
        andi  r2, r5, 1
  800078:	2880004c 	andi	r2,r5,1
        beq   r2, zero, .Lnot_irq
  80007c:	10000326 	beq	r2,zero,80008c <alt_exception+0x6c>
        beq   r4, zero, .Lnot_irq
  800080:	20000226 	beq	r4,zero,80008c <alt_exception+0x6c>
        /*
         * Now that all necessary registers have been preserved, call 
         * alt_irq_handler() to process the interrupts.
         */

        call alt_irq_handler
  800084:	08000fc0 	call	8000fc <alt_irq_handler>

        .section .exceptions.irqreturn, "xa"

        br    .Lexception_exit
  800088:	00000706 	br	8000a8 <alt_exception+0x88>
         * upon completion, so we write ea (address of instruction *after*
         * the one where the exception occured) into 72(sp). The actual
         * instruction that caused the exception is written in r2, which these
         * handlers will utilize.
         */
        stw ea, 72(sp) /* EA is PC+4 so will skip over instruction causing exception */
  80008c:	df401215 	stw	ea,72(sp)
.Lunknown_16bit:
        addi.n r4, r4, 2 /* Need PC+2 to skip over instruction causing exception */
        stw r4, 72(sp)

#else /* CDX is not Enabled and all instructions are 32bits */
        ldw r2, -4(ea) /* Instruction value that caused exception */
  800090:	e8bfff17 	ldw	r2,-4(ea)
         * debugger is present) or go into an infinite loop since the
         * handling behavior is undefined; in that case we will not return here.
         */

        /* Load exception-causing address as first argument (r4) */
        addi   r4, ea, -4
  800094:	e93fff04 	addi	r4,ea,-4

        /* Call the instruction-exception entry */
        call   alt_instruction_exception_entry
  800098:	08001d00 	call	8001d0 <alt_instruction_exception_entry>
         * instruction
         *
         * Return code was 0: Skip. The instruction after the exception is
         * already stored in 72(sp).
         */
        bne   r2, r0, .Lexception_exit
  80009c:	1000021e 	bne	r2,zero,8000a8 <alt_exception+0x88>

        /*
         * Otherwise, modify 72(sp) to re-issue the instruction that caused the
         * exception.
         */
        addi  r15, ea, -4  /* instruction that caused exception */
  8000a0:	ebffff04 	addi	r15,ea,-4
        stw   r15,  72(sp)
  8000a4:	dbc01215 	stw	r15,72(sp)
        /* 
         * Restore the saved registers, so that all general purpose registers 
         * have been restored to their state at the time the interrupt occured.
         */

        ldw   r5,  68(sp)
  8000a8:	d9401117 	ldw	r5,68(sp)
        ldw   ea,  72(sp)  /* This becomes the PC once eret is executed */
  8000ac:	df401217 	ldw	ea,72(sp)
        ldw   ra,   0(sp)
  8000b0:	dfc00017 	ldw	ra,0(sp)

        wrctl estatus, r5
  8000b4:	2801707a 	wrctl	estatus,r5

        ldw   r1,   8(sp)
  8000b8:	d8400217 	ldw	at,8(sp)
        ldw   r2,  12(sp)
  8000bc:	d8800317 	ldw	r2,12(sp)
        ldw   r3,  16(sp)
  8000c0:	d8c00417 	ldw	r3,16(sp)
        ldw   r4,  20(sp)
  8000c4:	d9000517 	ldw	r4,20(sp)
        ldw   r5,  24(sp)
  8000c8:	d9400617 	ldw	r5,24(sp)
        ldw   r6,  28(sp)
  8000cc:	d9800717 	ldw	r6,28(sp)
        ldw   r7,  32(sp)
  8000d0:	d9c00817 	ldw	r7,32(sp)

#if defined(ALT_EXCEPTION_STACK) && defined(ALT_STACK_CHECK)
        ldw   et, %gprel(alt_exception_old_stack_limit)(gp)
#endif

        ldw   r8,  36(sp)
  8000d4:	da000917 	ldw	r8,36(sp)
        ldw   r9,  40(sp)
  8000d8:	da400a17 	ldw	r9,40(sp)
        ldw   r10, 44(sp)
  8000dc:	da800b17 	ldw	r10,44(sp)
        ldw   r11, 48(sp)
  8000e0:	dac00c17 	ldw	r11,48(sp)
        ldw   r12, 52(sp)
  8000e4:	db000d17 	ldw	r12,52(sp)
        ldw   r13, 56(sp)
  8000e8:	db400e17 	ldw	r13,56(sp)
        ldw   r14, 60(sp)
  8000ec:	db800f17 	ldw	r14,60(sp)
        ldw   r15, 64(sp)
  8000f0:	dbc01017 	ldw	r15,64(sp)
        stw   et, %gprel(alt_stack_limit_value)(gp)
        stw   zero, %gprel(alt_exception_old_stack_limit)(gp)
#endif /* ALT_STACK_CHECK */
        ldw   sp,  76(sp)
#else /* ALT_EXCEPTION_STACK disabled */
        addi  sp, sp, 76
  8000f4:	dec01304 	addi	sp,sp,76

        /*
         * Return to the interrupted instruction.
         */

        eret
  8000f8:	ef80083a 	eret

008000fc <alt_irq_handler>:
 * instruction is present if the macro ALT_CI_INTERRUPT_VECTOR defined.
 */

void alt_irq_handler (void) __attribute__ ((section (".exceptions")));
void alt_irq_handler (void)
{
  8000fc:	defff904 	addi	sp,sp,-28
  800100:	dfc00615 	stw	ra,24(sp)
  800104:	df000515 	stw	fp,20(sp)
  800108:	df000504 	addi	fp,sp,20
  
  /*
   * Notify the operating system that we are at interrupt level.
   */ 
  
  ALT_OS_INT_ENTER();
  80010c:	0001883a 	nop
#ifndef NIOS2_EIC_PRESENT
static ALT_INLINE alt_u32 ALT_ALWAYS_INLINE alt_irq_pending (void)
{
  alt_u32 active;

  NIOS2_READ_IPENDING (active);
  800110:	0005313a 	rdctl	r2,ipending
  800114:	e0bffe15 	stw	r2,-8(fp)

  return active;
  800118:	e0bffe17 	ldw	r2,-8(fp)
   * Consider the case where the high priority interupt is asserted during
   * the interrupt entry sequence for a lower priority interrupt to see why
   * this is the case.
   */

  active = alt_irq_pending ();
  80011c:	e0bffb15 	stw	r2,-20(fp)

  do
  {
    i = 0;
  800120:	e03ffd15 	stw	zero,-12(fp)
    mask = 1;
  800124:	00800044 	movi	r2,1
  800128:	e0bffc15 	stw	r2,-16(fp)
     * called to clear the interrupt condition.
     */

    do
    {
      if (active & mask)
  80012c:	e0fffb17 	ldw	r3,-20(fp)
  800130:	e0bffc17 	ldw	r2,-16(fp)
  800134:	1884703a 	and	r2,r3,r2
  800138:	10001426 	beq	r2,zero,80018c <alt_irq_handler+0x90>
      { 
#ifdef ALT_ENHANCED_INTERRUPT_API_PRESENT
        alt_irq[i].handler(alt_irq[i].context); 
  80013c:	00802074 	movhi	r2,129
  800140:	10830604 	addi	r2,r2,3096
  800144:	e0fffd17 	ldw	r3,-12(fp)
  800148:	180690fa 	slli	r3,r3,3
  80014c:	10c5883a 	add	r2,r2,r3
  800150:	10c00017 	ldw	r3,0(r2)
  800154:	00802074 	movhi	r2,129
  800158:	10830604 	addi	r2,r2,3096
  80015c:	e13ffd17 	ldw	r4,-12(fp)
  800160:	200890fa 	slli	r4,r4,3
  800164:	1105883a 	add	r2,r2,r4
  800168:	10800104 	addi	r2,r2,4
  80016c:	10800017 	ldw	r2,0(r2)
  800170:	1009883a 	mov	r4,r2
  800174:	183ee83a 	callr	r3
#else
        alt_irq[i].handler(alt_irq[i].context, i); 
#endif
        break;
  800178:	0001883a 	nop
#ifndef NIOS2_EIC_PRESENT
static ALT_INLINE alt_u32 ALT_ALWAYS_INLINE alt_irq_pending (void)
{
  alt_u32 active;

  NIOS2_READ_IPENDING (active);
  80017c:	0005313a 	rdctl	r2,ipending
  800180:	e0bfff15 	stw	r2,-4(fp)

  return active;
  800184:	e0bfff17 	ldw	r2,-4(fp)
  800188:	00000706 	br	8001a8 <alt_irq_handler+0xac>
      }
      mask <<= 1;
  80018c:	e0bffc17 	ldw	r2,-16(fp)
  800190:	1085883a 	add	r2,r2,r2
  800194:	e0bffc15 	stw	r2,-16(fp)
      i++;
  800198:	e0bffd17 	ldw	r2,-12(fp)
  80019c:	10800044 	addi	r2,r2,1
  8001a0:	e0bffd15 	stw	r2,-12(fp)

    } while (1);
  8001a4:	003fe106 	br	80012c <__alt_mem_onchip_mem+0xff7f812c>

    active = alt_irq_pending ();
  8001a8:	e0bffb15 	stw	r2,-20(fp)
    
  } while (active);
  8001ac:	e0bffb17 	ldw	r2,-20(fp)
  8001b0:	103fdb1e 	bne	r2,zero,800120 <__alt_mem_onchip_mem+0xff7f8120>

  /*
   * Notify the operating system that interrupt processing is complete.
   */ 

  ALT_OS_INT_EXIT();
  8001b4:	0001883a 	nop
}
  8001b8:	0001883a 	nop
  8001bc:	e037883a 	mov	sp,fp
  8001c0:	dfc00117 	ldw	ra,4(sp)
  8001c4:	df000017 	ldw	fp,0(sp)
  8001c8:	dec00204 	addi	sp,sp,8
  8001cc:	f800283a 	ret

008001d0 <alt_instruction_exception_entry>:
 * that handler if it has been registered. Absent a handler, it will
 * break break or hang as discussed below.
 */
int 
alt_instruction_exception_entry (alt_u32 exception_pc)
{
  8001d0:	defffb04 	addi	sp,sp,-20
  8001d4:	dfc00415 	stw	ra,16(sp)
  8001d8:	df000315 	stw	fp,12(sp)
  8001dc:	df000304 	addi	fp,sp,12
  8001e0:	e13fff15 	stw	r4,-4(fp)
 * NIOS2_EXCEPTION_CAUSE_NOT_PRESENT. Your handling routine should
 * check the validity of the cause argument before proceeding.
 */
#ifdef NIOS2_HAS_EXTRA_EXCEPTION_INFO
  /* Get exception cause & "badaddr" */
  NIOS2_READ_EXCEPTION(cause);
  8001e4:	000531fa 	rdctl	r2,exception
  8001e8:	e0bffd15 	stw	r2,-12(fp)
  cause = ( (cause & NIOS2_EXCEPTION_REG_CAUSE_MASK) >>
  8001ec:	e0bffd17 	ldw	r2,-12(fp)
  8001f0:	10801f0c 	andi	r2,r2,124
  8001f4:	1004d0ba 	srli	r2,r2,2
  8001f8:	e0bffd15 	stw	r2,-12(fp)
              NIOS2_EXCEPTION_REG_CAUSE_OFST );

  NIOS2_READ_BADADDR(badaddr);
  8001fc:	0005333a 	rdctl	r2,badaddr
  800200:	e0bffe15 	stw	r2,-8(fp)
#else
  cause = NIOS2_EXCEPTION_CAUSE_NOT_PRESENT;
  badaddr = 0;
#endif /* NIOS2_HAS_EXTRA_EXCEPTION_INFO */

  if(alt_instruction_exception_handler) {
  800204:	d0a75217 	ldw	r2,-25272(gp)
  800208:	10000726 	beq	r2,zero,800228 <alt_instruction_exception_entry+0x58>
     * Call handler. Its return value indicates whether the exception-causing
     * instruction should be re-issued. The code that called us,
     * alt_eceptions_entry.S, will look at this value and adjust the ea
     * register as necessary
     */
    return alt_instruction_exception_handler(cause, exception_pc, badaddr);
  80020c:	d0a75217 	ldw	r2,-25272(gp)
  800210:	e0fffd17 	ldw	r3,-12(fp)
  800214:	e1bffe17 	ldw	r6,-8(fp)
  800218:	e17fff17 	ldw	r5,-4(fp)
  80021c:	1809883a 	mov	r4,r3
  800220:	103ee83a 	callr	r2
  800224:	00000206 	br	800230 <alt_instruction_exception_entry+0x60>
   *    (a peripheral which negates its interrupt output before its
   *    interrupt handler has been executed will cause spurious interrupts)
   */
  else {
#ifdef NIOS2_HAS_DEBUG_STUB
    NIOS2_BREAK();
  800228:	003da03a 	break	0
      ;
#endif /* NIOS2_HAS_DEBUG_STUB */
  }

  /* We should not get here. Remove compiler warning. */
  return NIOS2_EXCEPTION_RETURN_REISSUE_INST;
  80022c:	0005883a 	mov	r2,zero
}
  800230:	e037883a 	mov	sp,fp
  800234:	dfc00117 	ldw	ra,4(sp)
  800238:	df000017 	ldw	fp,0(sp)
  80023c:	dec00204 	addi	sp,sp,8
  800240:	f800283a 	ret

Disassembly of section .text:

00800244 <_start>:

    /* Assume the data cache size is always a power of two. */
#if NIOS2_DCACHE_SIZE > 0x8000
    movhi r2, %hi(NIOS2_DCACHE_SIZE)
#else
    movui r2, NIOS2_DCACHE_SIZE
  800244:	00820014 	movui	r2,2048
#endif

0:
    initd 0(r2)
  800248:	10000033 	initd	0(r2)
#ifdef NIOS2_ECC_PRESENT
    addi r2, r2, -4
#else
    addi r2, r2, -NIOS2_DCACHE_LINE_SIZE
  80024c:	10bff804 	addi	r2,r2,-32
#endif
    bgt r2, zero, 0b
  800250:	00bffd16 	blt	zero,r2,800248 <__alt_mem_onchip_mem+0xff7f8248>

    /*
     * Now that the caches are initialized, set up the stack pointer and global pointer.
     * The values provided by the linker are assumed to be correctly aligned.
     */
    movhi sp, %hi(__alt_stack_pointer)
  800254:	06c04034 	movhi	sp,256
    ori sp, sp, %lo(__alt_stack_pointer)
  800258:	dec00014 	ori	sp,sp,0
    movhi gp, %hi(_gp)
  80025c:	06802074 	movhi	gp,129
    ori gp, gp, %lo(_gp)
  800260:	d69b3e14 	ori	gp,gp,27896
 */
#ifndef ALT_SIM_OPTIMIZE
    /* Log that the BSS is about to be cleared. */
    ALT_LOG_PUTS(alt_log_msg_bss)

    movhi r2, %hi(__bss_start)
  800264:	00802074 	movhi	r2,129
    ori r2, r2, %lo(__bss_start)
  800268:	10827414 	ori	r2,r2,2512

    movhi r3, %hi(__bss_end)
  80026c:	00c02074 	movhi	r3,129
    ori r3, r3, %lo(__bss_end)
  800270:	18c34614 	ori	r3,r3,3352

    beq r2, r3, 1f
  800274:	10c00326 	beq	r2,r3,800284 <_start+0x40>

0:
    stw zero, (r2)
  800278:	10000015 	stw	zero,0(r2)
    addi r2, r2, 4
  80027c:	10800104 	addi	r2,r2,4
    bltu r2, r3, 0b
  800280:	10fffd36 	bltu	r2,r3,800278 <__alt_mem_onchip_mem+0xff7f8278>
     * section aren't defined until alt_load() has been called).
     */
    mov   et, zero
#endif

    call alt_load
  800284:	080905c0 	call	80905c <alt_load>

    /* Log that alt_main is about to be called. */
    ALT_LOG_PUTS(alt_log_msg_alt_main)

    /* Call the C entry point. It should never return. */
    call alt_main
  800288:	08091f00 	call	8091f0 <alt_main>

0080028c <alt_after_alt_main>:

    /* Wait in infinite loop in case alt_main does return. */
alt_after_alt_main:
    br alt_after_alt_main
  80028c:	003fff06 	br	80028c <__alt_mem_onchip_mem+0xff7f828c>

00800290 <uart_com>:

static volatile bool ASint = false;
static volatile bool VSint = false;

void uart_com(void* context, alt_u32 id)
{
  800290:	defffb04 	addi	sp,sp,-20
  800294:	dfc00415 	stw	ra,16(sp)
  800298:	df000315 	stw	fp,12(sp)
  80029c:	df000304 	addi	fp,sp,12
  8002a0:	e13ffe15 	stw	r4,-8(fp)
  8002a4:	e17fff15 	stw	r5,-4(fp)
	char inchar = IORD_ALTERA_AVALON_UART_RXDATA(UART_BASE);
  8002a8:	00804074 	movhi	r2,257
  8002ac:	10841004 	addi	r2,r2,4160
  8002b0:	10800037 	ldwio	r2,0(r2)
  8002b4:	e0bffd05 	stb	r2,-12(fp)

	ASint = false;
  8002b8:	d02736c5 	stb	zero,-25381(gp)
	VSint = false;
  8002bc:	d0273705 	stb	zero,-25380(gp)

	if (inchar == 'A') {
  8002c0:	e0bffd07 	ldb	r2,-12(fp)
  8002c4:	10801058 	cmpnei	r2,r2,65
  8002c8:	1000051e 	bne	r2,zero,8002e0 <uart_com+0x50>
		ASint = true;
  8002cc:	00800044 	movi	r2,1
  8002d0:	d0a736c5 	stb	r2,-25381(gp)
		printf("got A\n");
  8002d4:	01002074 	movhi	r4,129
  8002d8:	21333904 	addi	r4,r4,-13084
  8002dc:	0805d3c0 	call	805d3c <puts>
	}

	if (inchar == 'V') {
  8002e0:	e0bffd07 	ldb	r2,-12(fp)
  8002e4:	10801598 	cmpnei	r2,r2,86
  8002e8:	1000051e 	bne	r2,zero,800300 <uart_com+0x70>
		VSint = true;
  8002ec:	00800044 	movi	r2,1
  8002f0:	d0a73705 	stb	r2,-25380(gp)
		printf("got V\n");
  8002f4:	01002074 	movhi	r4,129
  8002f8:	21333b04 	addi	r4,r4,-13076
  8002fc:	0805d3c0 	call	805d3c <puts>
	}
}
  800300:	0001883a 	nop
  800304:	e037883a 	mov	sp,fp
  800308:	dfc00117 	ldw	ra,4(sp)
  80030c:	df000017 	ldw	fp,0(sp)
  800310:	dec00204 	addi	sp,sp,8
  800314:	f800283a 	ret

00800318 <main>:

int asr = 0;
int vsr = 0;
int main()
{
  800318:	defff004 	addi	sp,sp,-64
  80031c:	dfc00f15 	stw	ra,60(sp)
  800320:	df000e15 	stw	fp,56(sp)
  800324:	df000e04 	addi	fp,sp,56
	void* uart_con; // cast before passing to ISR
	alt_irq_register(UART_IRQ, uart_con, uart_com);
  800328:	01802034 	movhi	r6,128
  80032c:	3180a404 	addi	r6,r6,656
  800330:	e17ff317 	ldw	r5,-52(fp)
  800334:	0009883a 	mov	r4,zero
  800338:	0808d940 	call	808d94 <alt_irq_register>

	printf("Hello from Nios II!\n");
  80033c:	01002074 	movhi	r4,129
  800340:	21333d04 	addi	r4,r4,-13068
  800344:	0805d3c0 	call	805d3c <puts>
	bool key0;
	bool key1;
	bool sw0;
	bool sw1;

	bool bsccharts = false;
  800348:	e03ff205 	stb	zero,-56(fp)
	alt_alarm one_ms_timer;
	void* timerContext;

	init_sccharts();
  80034c:	08007080 	call	800708 <init_sccharts>
	init_purec();
  800350:	08006480 	call	800648 <init_purec>

	while(true) {

		switches = IORD_ALTERA_AVALON_PIO_DATA(SWITCHES_BASE);
  800354:	00804074 	movhi	r2,257
  800358:	10842404 	addi	r2,r2,4240
  80035c:	10800037 	ldwio	r2,0(r2)
  800360:	e0bff415 	stw	r2,-48(fp)
		sw0 = ((switches & ( 1 << 0 )) >> 0);
  800364:	e0bff417 	ldw	r2,-48(fp)
  800368:	1080004c 	andi	r2,r2,1
  80036c:	1004c03a 	cmpne	r2,r2,zero
  800370:	e0bff505 	stb	r2,-44(fp)
		sw1 = ((switches & ( 1 << 1 )) >> 1);
  800374:	e0bff417 	ldw	r2,-48(fp)
  800378:	1080008c 	andi	r2,r2,2
  80037c:	1004d07a 	srli	r2,r2,1
  800380:	1004c03a 	cmpne	r2,r2,zero
  800384:	e0bff545 	stb	r2,-43(fp)

		IOWR_ALTERA_AVALON_PIO_DATA(LEDS_RED_BASE, sw0 | (sw1 << 1));
  800388:	e0fff503 	ldbu	r3,-44(fp)
  80038c:	e0bff543 	ldbu	r2,-43(fp)
  800390:	1085883a 	add	r2,r2,r2
  800394:	1886b03a 	or	r3,r3,r2
  800398:	00804074 	movhi	r2,257
  80039c:	10842004 	addi	r2,r2,4224
  8003a0:	10c00035 	stwio	r3,0(r2)

		// LED0 off
		if (sw0 == 0) {
  8003a4:	e0bff503 	ldbu	r2,-44(fp)
  8003a8:	1080005c 	xori	r2,r2,1
  8003ac:	10803fcc 	andi	r2,r2,255
  8003b0:	10000326 	beq	r2,zero,8003c0 <main+0xa8>
			mode = 1;
  8003b4:	00800044 	movi	r2,1
  8003b8:	d0a73685 	stb	r2,-25382(gp)
  8003bc:	00000206 	br	8003c8 <main+0xb0>
		// LED) on
		} else {
			mode = 2;
  8003c0:	00800084 	movi	r2,2
  8003c4:	d0a73685 	stb	r2,-25382(gp)
		}


		if (mode == 1) {
  8003c8:	d0a73683 	ldbu	r2,-25382(gp)
  8003cc:	10803fcc 	andi	r2,r2,255
  8003d0:	1080201c 	xori	r2,r2,128
  8003d4:	10bfe004 	addi	r2,r2,-128
  8003d8:	10800058 	cmpnei	r2,r2,1
  8003dc:	1000121e 	bne	r2,zero,800428 <main+0x110>
			keys = IORD_ALTERA_AVALON_PIO_DATA(KEYS_BASE);
  8003e0:	00804074 	movhi	r2,257
  8003e4:	10842804 	addi	r2,r2,4256
  8003e8:	10800037 	ldwio	r2,0(r2)
  8003ec:	e0bff615 	stw	r2,-40(fp)
			key0 = !((keys & ( 1 << 0 )) >> 0);
  8003f0:	e0bff617 	ldw	r2,-40(fp)
  8003f4:	1080004c 	andi	r2,r2,1
  8003f8:	1005003a 	cmpeq	r2,r2,zero
  8003fc:	e0bff705 	stb	r2,-36(fp)
			key1 = !((keys & ( 1 << 1 )) >> 1);
  800400:	e0bff617 	ldw	r2,-40(fp)
  800404:	1080008c 	andi	r2,r2,2
  800408:	1004d07a 	srli	r2,r2,1
  80040c:	1005003a 	cmpeq	r2,r2,zero
  800410:	e0bff745 	stb	r2,-35(fp)

			AS = key0;
  800414:	e0bff703 	ldbu	r2,-36(fp)
  800418:	d0a73c85 	stb	r2,-25358(gp)
			VS = key1;
  80041c:	e0bff743 	ldbu	r2,-35(fp)
  800420:	d0a73c05 	stb	r2,-25360(gp)
  800424:	00000a06 	br	800450 <main+0x138>
		} else if (mode == 2) {
  800428:	d0a73683 	ldbu	r2,-25382(gp)
  80042c:	10803fcc 	andi	r2,r2,255
  800430:	1080201c 	xori	r2,r2,128
  800434:	10bfe004 	addi	r2,r2,-128
  800438:	10800098 	cmpnei	r2,r2,2
  80043c:	1000041e 	bne	r2,zero,800450 <main+0x138>
			AS = ASint;
  800440:	d0a736c3 	ldbu	r2,-25381(gp)
  800444:	d0a73c85 	stb	r2,-25358(gp)
			VS = VSint;
  800448:	d0a73703 	ldbu	r2,-25380(gp)
  80044c:	d0a73c05 	stb	r2,-25360(gp)
		}

		IOWR_ALTERA_AVALON_PIO_DATA(LEDS_GREEN_BASE, AS | (VS << 1) | (APout << 2) | (VPout << 3));
  800450:	d0a73c83 	ldbu	r2,-25358(gp)
  800454:	10c03fcc 	andi	r3,r2,255
  800458:	d0a73c03 	ldbu	r2,-25360(gp)
  80045c:	10803fcc 	andi	r2,r2,255
  800460:	1085883a 	add	r2,r2,r2
  800464:	1886b03a 	or	r3,r3,r2
  800468:	d0a73603 	ldbu	r2,-25384(gp)
  80046c:	10803fcc 	andi	r2,r2,255
  800470:	1085883a 	add	r2,r2,r2
  800474:	1085883a 	add	r2,r2,r2
  800478:	1886b03a 	or	r3,r3,r2
  80047c:	d0a73643 	ldbu	r2,-25383(gp)
  800480:	10803fcc 	andi	r2,r2,255
  800484:	100490fa 	slli	r2,r2,3
  800488:	1886b03a 	or	r3,r3,r2
  80048c:	00804074 	movhi	r2,257
  800490:	10841c04 	addi	r2,r2,4208
  800494:	10c00035 	stwio	r3,0(r2)


		// 0 is SCCharts, 1 is pure c	-- based on swtich 1
		if (sw1 == 0) {
  800498:	e0bff543 	ldbu	r2,-43(fp)
  80049c:	1080005c 	xori	r2,r2,1
  8004a0:	10803fcc 	andi	r2,r2,255
  8004a4:	10001026 	beq	r2,zero,8004e8 <main+0x1d0>
			stop_purec();
  8004a8:	08006280 	call	800628 <stop_purec>

			if (!bsccharts) {
  8004ac:	e0bff203 	ldbu	r2,-56(fp)
  8004b0:	1080005c 	xori	r2,r2,1
  8004b4:	10803fcc 	andi	r2,r2,255
  8004b8:	10001026 	beq	r2,zero,8004fc <main+0x1e4>
				init_sccharts();
  8004bc:	08007080 	call	800708 <init_sccharts>
				alt_alarm_start(&one_ms_timer, 1, timer_tick_ms, timerContext);
  8004c0:	e0bffa04 	addi	r2,fp,-24
  8004c4:	e1fff817 	ldw	r7,-32(fp)
  8004c8:	01802034 	movhi	r6,128
  8004cc:	31819a04 	addi	r6,r6,1640
  8004d0:	01400044 	movi	r5,1
  8004d4:	1009883a 	mov	r4,r2
  8004d8:	0808a440 	call	808a44 <alt_alarm_start>
				bsccharts = true;
  8004dc:	00800044 	movi	r2,1
  8004e0:	e0bff205 	stb	r2,-56(fp)
  8004e4:	00000506 	br	8004fc <main+0x1e4>
			}
		} else {
			bsccharts = false;
  8004e8:	e03ff205 	stb	zero,-56(fp)
			alt_alarm_stop(&one_ms_timer);
  8004ec:	e0bffa04 	addi	r2,fp,-24
  8004f0:	1009883a 	mov	r4,r2
  8004f4:	08095000 	call	809500 <alt_alarm_stop>
			pacemaker();
  8004f8:	0800bac0 	call	800bac <pacemaker>
		}


		// sending AP and VP over UART
		if (mode == 2) {
  8004fc:	d0a73683 	ldbu	r2,-25382(gp)
  800500:	10803fcc 	andi	r2,r2,255
  800504:	1080201c 	xori	r2,r2,128
  800508:	10bfe004 	addi	r2,r2,-128
  80050c:	10800098 	cmpnei	r2,r2,2
  800510:	10000e1e 	bne	r2,zero,80054c <main+0x234>
			if (AP) {
  800514:	d0a73cc3 	ldbu	r2,-25357(gp)
  800518:	10803fcc 	andi	r2,r2,255
  80051c:	10000426 	beq	r2,zero,800530 <main+0x218>
				IOWR_ALTERA_AVALON_UART_TXDATA(UART_BASE, 'A');
  800520:	00c01044 	movi	r3,65
  800524:	00804074 	movhi	r2,257
  800528:	10841104 	addi	r2,r2,4164
  80052c:	10c00035 	stwio	r3,0(r2)
			}

			if (VP) {
  800530:	d0a73c43 	ldbu	r2,-25359(gp)
  800534:	10803fcc 	andi	r2,r2,255
  800538:	10000426 	beq	r2,zero,80054c <main+0x234>
				IOWR_ALTERA_AVALON_UART_TXDATA(UART_BASE, 'V');
  80053c:	00c01584 	movi	r3,86
  800540:	00804074 	movhi	r2,257
  800544:	10841104 	addi	r2,r2,4164
  800548:	10c00035 	stwio	r3,0(r2)
			}
		}


		// LED reseting
		if(!APout) { APout = AP; }
  80054c:	d0a73603 	ldbu	r2,-25384(gp)
  800550:	1080005c 	xori	r2,r2,1
  800554:	10803fcc 	andi	r2,r2,255
  800558:	10000226 	beq	r2,zero,800564 <main+0x24c>
  80055c:	d0a73cc3 	ldbu	r2,-25357(gp)
  800560:	d0a73605 	stb	r2,-25384(gp)
		if(!VPout) { VPout = VP; }
  800564:	d0a73643 	ldbu	r2,-25383(gp)
  800568:	1080005c 	xori	r2,r2,1
  80056c:	10803fcc 	andi	r2,r2,255
  800570:	10000226 	beq	r2,zero,80057c <main+0x264>
  800574:	d0a73c43 	ldbu	r2,-25359(gp)
  800578:	d0a73645 	stb	r2,-25383(gp)

		if (APout) { reset_AP(); }
  80057c:	d0a73603 	ldbu	r2,-25384(gp)
  800580:	10803fcc 	andi	r2,r2,255
  800584:	10000126 	beq	r2,zero,80058c <main+0x274>
  800588:	08007940 	call	800794 <reset_AP>
		if (VPout) { reset_VP(); }
  80058c:	d0a73643 	ldbu	r2,-25383(gp)
  800590:	10803fcc 	andi	r2,r2,255
  800594:	10000126 	beq	r2,zero,80059c <main+0x284>
  800598:	08007500 	call	800750 <reset_VP>

		int COUNTR = 2000;
  80059c:	0081f404 	movi	r2,2000
  8005a0:	e0bff915 	stw	r2,-28(fp)
		if (ASint) {
  8005a4:	d0a736c3 	ldbu	r2,-25381(gp)
  8005a8:	10803fcc 	andi	r2,r2,255
  8005ac:	10000726 	beq	r2,zero,8005cc <main+0x2b4>
			if (asr++ > COUNTR) {
  8005b0:	d0a73817 	ldw	r2,-25376(gp)
  8005b4:	10c00044 	addi	r3,r2,1
  8005b8:	d0e73815 	stw	r3,-25376(gp)
  8005bc:	e0fff917 	ldw	r3,-28(fp)
  8005c0:	1880020e 	bge	r3,r2,8005cc <main+0x2b4>
				asr = 0;
  8005c4:	d0273815 	stw	zero,-25376(gp)
				ASint = false;
  8005c8:	d02736c5 	stb	zero,-25381(gp)
			}
		}
		if (VSint) {
  8005cc:	d0a73703 	ldbu	r2,-25380(gp)
  8005d0:	10803fcc 	andi	r2,r2,255
  8005d4:	103f5f26 	beq	r2,zero,800354 <__alt_mem_onchip_mem+0xff7f8354>
			if (vsr++ > COUNTR) {
  8005d8:	d0a73917 	ldw	r2,-25372(gp)
  8005dc:	10c00044 	addi	r3,r2,1
  8005e0:	d0e73915 	stw	r3,-25372(gp)
  8005e4:	e0fff917 	ldw	r3,-28(fp)
  8005e8:	18bf5a0e 	bge	r3,r2,800354 <__alt_mem_onchip_mem+0xff7f8354>
				vsr = 0;
  8005ec:	d0273915 	stw	zero,-25372(gp)
				VSint = false;
  8005f0:	d0273705 	stb	zero,-25380(gp)
			}
		}
	}
  8005f4:	003f5706 	br	800354 <__alt_mem_onchip_mem+0xff7f8354>

008005f8 <start_purec>:

	return 0;
}

void start_purec() {
  8005f8:	deffff04 	addi	sp,sp,-4
  8005fc:	df000015 	stw	fp,0(sp)
  800600:	d839883a 	mov	fp,sp
	APout = true;
  800604:	00800044 	movi	r2,1
  800608:	d0a73605 	stb	r2,-25384(gp)
	VPout = true;
  80060c:	00800044 	movi	r2,1
  800610:	d0a73645 	stb	r2,-25383(gp)
}
  800614:	0001883a 	nop
  800618:	e037883a 	mov	sp,fp
  80061c:	df000017 	ldw	fp,0(sp)
  800620:	dec00104 	addi	sp,sp,4
  800624:	f800283a 	ret

00800628 <stop_purec>:

void stop_purec() {
  800628:	deffff04 	addi	sp,sp,-4
  80062c:	df000015 	stw	fp,0(sp)
  800630:	d839883a 	mov	fp,sp

}
  800634:	0001883a 	nop
  800638:	e037883a 	mov	sp,fp
  80063c:	df000017 	ldw	fp,0(sp)
  800640:	dec00104 	addi	sp,sp,4
  800644:	f800283a 	ret

00800648 <init_purec>:

void init_purec() {
  800648:	deffff04 	addi	sp,sp,-4
  80064c:	df000015 	stw	fp,0(sp)
  800650:	d839883a 	mov	fp,sp

}
  800654:	0001883a 	nop
  800658:	e037883a 	mov	sp,fp
  80065c:	df000017 	ldw	fp,0(sp)
  800660:	dec00104 	addi	sp,sp,4
  800664:	f800283a 	ret

00800668 <timer_tick_ms>:

alt_u32 timer_tick_ms(void* context) {
  800668:	defffd04 	addi	sp,sp,-12
  80066c:	dfc00215 	stw	ra,8(sp)
  800670:	df000115 	stw	fp,4(sp)
  800674:	df000104 	addi	fp,sp,4
  800678:	e13fff15 	stw	r4,-4(fp)
	td.AS = AS;
  80067c:	d0a73c83 	ldbu	r2,-25358(gp)
  800680:	1007883a 	mov	r3,r2
  800684:	00802074 	movhi	r2,129
  800688:	10829104 	addi	r2,r2,2628
  80068c:	10c00005 	stb	r3,0(r2)
	td.VS = VS;
  800690:	d0a73c03 	ldbu	r2,-25360(gp)
  800694:	1007883a 	mov	r3,r2
  800698:	00802074 	movhi	r2,129
  80069c:	10829104 	addi	r2,r2,2628
  8006a0:	10c00045 	stb	r3,1(r2)

	tick(&td);
  8006a4:	01002074 	movhi	r4,129
  8006a8:	21029104 	addi	r4,r4,2628
  8006ac:	08045b80 	call	8045b8 <tick>

	AP = td.AP;
  8006b0:	00802074 	movhi	r2,129
  8006b4:	10829104 	addi	r2,r2,2628
  8006b8:	10801903 	ldbu	r2,100(r2)
  8006bc:	10803fcc 	andi	r2,r2,255
  8006c0:	1080201c 	xori	r2,r2,128
  8006c4:	10bfe004 	addi	r2,r2,-128
  8006c8:	1004c03a 	cmpne	r2,r2,zero
  8006cc:	d0a73cc5 	stb	r2,-25357(gp)
	VP = td.VP;
  8006d0:	00802074 	movhi	r2,129
  8006d4:	10829104 	addi	r2,r2,2628
  8006d8:	10801943 	ldbu	r2,101(r2)
  8006dc:	10803fcc 	andi	r2,r2,255
  8006e0:	1080201c 	xori	r2,r2,128
  8006e4:	10bfe004 	addi	r2,r2,-128
  8006e8:	1004c03a 	cmpne	r2,r2,zero
  8006ec:	d0a73c45 	stb	r2,-25359(gp)

	return 1; // the next time out will be 1 milli-seconds
  8006f0:	00800044 	movi	r2,1
}
  8006f4:	e037883a 	mov	sp,fp
  8006f8:	dfc00117 	ldw	ra,4(sp)
  8006fc:	df000017 	ldw	fp,0(sp)
  800700:	dec00204 	addi	sp,sp,8
  800704:	f800283a 	ret

00800708 <init_sccharts>:

void init_sccharts() {
  800708:	defffe04 	addi	sp,sp,-8
  80070c:	dfc00115 	stw	ra,4(sp)
  800710:	df000015 	stw	fp,0(sp)
  800714:	d839883a 	mov	fp,sp
	reset(&td);
  800718:	01002074 	movhi	r4,129
  80071c:	21029104 	addi	r4,r4,2628
  800720:	08043700 	call	804370 <reset>
	td.deltaT = 1.0;
  800724:	00802074 	movhi	r2,129
  800728:	10829104 	addi	r2,r2,2628
  80072c:	10001515 	stw	zero,84(r2)
  800730:	00cffc34 	movhi	r3,16368
  800734:	10c01615 	stw	r3,88(r2)
}
  800738:	0001883a 	nop
  80073c:	e037883a 	mov	sp,fp
  800740:	dfc00117 	ldw	ra,4(sp)
  800744:	df000017 	ldw	fp,0(sp)
  800748:	dec00204 	addi	sp,sp,8
  80074c:	f800283a 	ret

00800750 <reset_VP>:

static const uint RESET_TIME = 4000;
static int VPclk = 0;
void reset_VP() {
  800750:	deffff04 	addi	sp,sp,-4
  800754:	df000015 	stw	fp,0(sp)
  800758:	d839883a 	mov	fp,sp
	if (VPclk > RESET_TIME) {
  80075c:	d0a73a17 	ldw	r2,-25368(gp)
  800760:	1007883a 	mov	r3,r2
  800764:	0083e804 	movi	r2,4000
  800768:	10c0022e 	bgeu	r2,r3,800774 <reset_VP+0x24>
		VPclk = 0;
  80076c:	d0273a15 	stw	zero,-25368(gp)
		VPout = false;
  800770:	d0273645 	stb	zero,-25383(gp)
	}
	VPclk++;
  800774:	d0a73a17 	ldw	r2,-25368(gp)
  800778:	10800044 	addi	r2,r2,1
  80077c:	d0a73a15 	stw	r2,-25368(gp)
}
  800780:	0001883a 	nop
  800784:	e037883a 	mov	sp,fp
  800788:	df000017 	ldw	fp,0(sp)
  80078c:	dec00104 	addi	sp,sp,4
  800790:	f800283a 	ret

00800794 <reset_AP>:

static int APclk = 0;
void reset_AP() {
  800794:	deffff04 	addi	sp,sp,-4
  800798:	df000015 	stw	fp,0(sp)
  80079c:	d839883a 	mov	fp,sp
	if (APclk > RESET_TIME) {
  8007a0:	d0a73b17 	ldw	r2,-25364(gp)
  8007a4:	1007883a 	mov	r3,r2
  8007a8:	0083e804 	movi	r2,4000
  8007ac:	10c0022e 	bgeu	r2,r3,8007b8 <reset_AP+0x24>
		APclk = 0;
  8007b0:	d0273b15 	stw	zero,-25364(gp)
		APout = false;
  8007b4:	d0273605 	stb	zero,-25384(gp)
	}
	APclk++;
  8007b8:	d0a73b17 	ldw	r2,-25364(gp)
  8007bc:	10800044 	addi	r2,r2,1
  8007c0:	d0a73b15 	stw	r2,-25364(gp)
}
  8007c4:	0001883a 	nop
  8007c8:	e037883a 	mov	sp,fp
  8007cc:	df000017 	ldw	fp,0(sp)
  8007d0:	dec00104 	addi	sp,sp,4
  8007d4:	f800283a 	ret

008007d8 <AVI_ISR>:
extendAVITimer,
}paceMakerState;

paceMakerState currentState = init;

alt_u32 AVI_ISR(void* context) {
  8007d8:	defffd04 	addi	sp,sp,-12
  8007dc:	dfc00215 	stw	ra,8(sp)
  8007e0:	df000115 	stw	fp,4(sp)
  8007e4:	df000104 	addi	fp,sp,4
  8007e8:	e13fff15 	stw	r4,-4(fp)
	AVITimerExpired = true;
  8007ec:	00800044 	movi	r2,1
  8007f0:	d0a74385 	stb	r2,-25330(gp)
	alt_alarm_stop(&AVI_TIMER);
  8007f4:	01002074 	movhi	r4,129
  8007f8:	21030004 	addi	r4,r4,3072
  8007fc:	08095000 	call	809500 <alt_alarm_stop>
	AVIRunning = false;
  800800:	d02744c5 	stb	zero,-25325(gp)
	return 0; // the next time out will be AVI VALUE ms
  800804:	0005883a 	mov	r2,zero
}
  800808:	e037883a 	mov	sp,fp
  80080c:	dfc00117 	ldw	ra,4(sp)
  800810:	df000017 	ldw	fp,0(sp)
  800814:	dec00204 	addi	sp,sp,8
  800818:	f800283a 	ret

0080081c <PVARP_ISR>:

alt_u32 PVARP_ISR(void* context) {
  80081c:	defffd04 	addi	sp,sp,-12
  800820:	dfc00215 	stw	ra,8(sp)
  800824:	df000115 	stw	fp,4(sp)
  800828:	df000104 	addi	fp,sp,4
  80082c:	e13fff15 	stw	r4,-4(fp)
	PVARPCount = 0;
  800830:	d0273e15 	stw	zero,-25352(gp)
	PVARPTimerExpired = true;
  800834:	00800044 	movi	r2,1
  800838:	d0a743c5 	stb	r2,-25329(gp)
	StartSensingAS = true;
  80083c:	00800044 	movi	r2,1
  800840:	d0a00105 	stb	r2,-32764(gp)
	alt_alarm_stop(&PVARP_TIMER);
  800844:	01002074 	movhi	r4,129
  800848:	2102fa04 	addi	r4,r4,3048
  80084c:	08095000 	call	809500 <alt_alarm_stop>
	PVARPRunning = false;
  800850:	d0274505 	stb	zero,-25324(gp)
	return 0;
  800854:	0005883a 	mov	r2,zero
}
  800858:	e037883a 	mov	sp,fp
  80085c:	dfc00117 	ldw	ra,4(sp)
  800860:	df000017 	ldw	fp,0(sp)
  800864:	dec00204 	addi	sp,sp,8
  800868:	f800283a 	ret

0080086c <VRP_ISR>:

alt_u32 VRP_ISR(void* context) {
  80086c:	defffd04 	addi	sp,sp,-12
  800870:	dfc00215 	stw	ra,8(sp)
  800874:	df000115 	stw	fp,4(sp)
  800878:	df000104 	addi	fp,sp,4
  80087c:	e13fff15 	stw	r4,-4(fp)
	VRPCount = 0;
  800880:	d0273f15 	stw	zero,-25348(gp)
	VRPTimerExpired = true;
  800884:	00800044 	movi	r2,1
  800888:	d0a74405 	stb	r2,-25328(gp)
	alt_alarm_stop(&VRP_TIMER);
  80088c:	01002074 	movhi	r4,129
  800890:	2102f404 	addi	r4,r4,3024
  800894:	08095000 	call	809500 <alt_alarm_stop>
	StartSensingVS = true;
  800898:	00800044 	movi	r2,1
  80089c:	d0a00145 	stb	r2,-32763(gp)
	VRPRunning = false;
  8008a0:	d0274545 	stb	zero,-25323(gp)
	return 0;
  8008a4:	0005883a 	mov	r2,zero
}
  8008a8:	e037883a 	mov	sp,fp
  8008ac:	dfc00117 	ldw	ra,4(sp)
  8008b0:	df000017 	ldw	fp,0(sp)
  8008b4:	dec00204 	addi	sp,sp,8
  8008b8:	f800283a 	ret

008008bc <AEI_ISR>:

alt_u32 AEI_ISR(void* context) {
  8008bc:	defffd04 	addi	sp,sp,-12
  8008c0:	dfc00215 	stw	ra,8(sp)
  8008c4:	df000115 	stw	fp,4(sp)
  8008c8:	df000104 	addi	fp,sp,4
  8008cc:	e13fff15 	stw	r4,-4(fp)
	AEICount = 0;
  8008d0:	d0274015 	stw	zero,-25344(gp)
	AEITimerExpired = true;
  8008d4:	00800044 	movi	r2,1
  8008d8:	d0a74445 	stb	r2,-25327(gp)
	alt_alarm_stop(&AEI_TIMER);
  8008dc:	01002074 	movhi	r4,129
  8008e0:	2102e204 	addi	r4,r4,2952
  8008e4:	08095000 	call	809500 <alt_alarm_stop>
	AEIRunning = false;
  8008e8:	d0274585 	stb	zero,-25322(gp)
	return 0;
  8008ec:	0005883a 	mov	r2,zero
}
  8008f0:	e037883a 	mov	sp,fp
  8008f4:	dfc00117 	ldw	ra,4(sp)
  8008f8:	df000017 	ldw	fp,0(sp)
  8008fc:	dec00204 	addi	sp,sp,8
  800900:	f800283a 	ret

00800904 <LRI_ISR>:

alt_u32 LRI_ISR(void* context) {
  800904:	defffd04 	addi	sp,sp,-12
  800908:	dfc00215 	stw	ra,8(sp)
  80090c:	df000115 	stw	fp,4(sp)
  800910:	df000104 	addi	fp,sp,4
  800914:	e13fff15 	stw	r4,-4(fp)
	LRICount = 0;
  800918:	d0274115 	stw	zero,-25340(gp)
	LRITimerExpired = true;
  80091c:	00800044 	movi	r2,1
  800920:	d0a74485 	stb	r2,-25326(gp)
	alt_alarm_stop(&LRI_TIMER);
  800924:	01002074 	movhi	r4,129
  800928:	2102e804 	addi	r4,r4,2976
  80092c:	08095000 	call	809500 <alt_alarm_stop>
	LRIRunning = false;
  800930:	d02745c5 	stb	zero,-25321(gp)
	return 0;
  800934:	0005883a 	mov	r2,zero
}
  800938:	e037883a 	mov	sp,fp
  80093c:	dfc00117 	ldw	ra,4(sp)
  800940:	df000017 	ldw	fp,0(sp)
  800944:	dec00204 	addi	sp,sp,8
  800948:	f800283a 	ret

0080094c <URI_ISR>:

alt_u32 URI_ISR(void* context) {
  80094c:	defffd04 	addi	sp,sp,-12
  800950:	dfc00215 	stw	ra,8(sp)
  800954:	df000115 	stw	fp,4(sp)
  800958:	df000104 	addi	fp,sp,4
  80095c:	e13fff15 	stw	r4,-4(fp)
	URICount = 0;
  800960:	d0274215 	stw	zero,-25336(gp)
	URITimerExpired = true;
  800964:	00800044 	movi	r2,1
  800968:	d0a001c5 	stb	r2,-32761(gp)
	alt_alarm_stop(&URI_TIMER);
  80096c:	01002074 	movhi	r4,129
  800970:	2102ee04 	addi	r4,r4,3000
  800974:	08095000 	call	809500 <alt_alarm_stop>
	URIRunning = false;
  800978:	d0274605 	stb	zero,-25320(gp)
	return 0;
  80097c:	0005883a 	mov	r2,zero
}
  800980:	e037883a 	mov	sp,fp
  800984:	dfc00117 	ldw	ra,4(sp)
  800988:	df000017 	ldw	fp,0(sp)
  80098c:	dec00204 	addi	sp,sp,8
  800990:	f800283a 	ret

00800994 <startAVITimer>:

void startAVITimer(){
  800994:	defffe04 	addi	sp,sp,-8
  800998:	dfc00115 	stw	ra,4(sp)
  80099c:	df000015 	stw	fp,0(sp)
  8009a0:	d839883a 	mov	fp,sp
	//start the timer, with timeout of AVI_VALUE in ms
	AVITimerExpired = false;
  8009a4:	d0274385 	stb	zero,-25330(gp)
	AVICount = 0;
  8009a8:	d0273d15 	stw	zero,-25356(gp)
	AVIRunning = true;
  8009ac:	00800044 	movi	r2,1
  8009b0:	d0a744c5 	stb	r2,-25325(gp)
	alt_alarm_start(&AVI_TIMER, AVI_VALUE, AVI_ISR, AVIContext);
  8009b4:	d0a00217 	ldw	r2,-32760(gp)
  8009b8:	100f883a 	mov	r7,r2
  8009bc:	01802034 	movhi	r6,128
  8009c0:	3181f604 	addi	r6,r6,2008
  8009c4:	01404b04 	movi	r5,300
  8009c8:	01002074 	movhi	r4,129
  8009cc:	21030004 	addi	r4,r4,3072
  8009d0:	0808a440 	call	808a44 <alt_alarm_start>
}
  8009d4:	0001883a 	nop
  8009d8:	e037883a 	mov	sp,fp
  8009dc:	dfc00117 	ldw	ra,4(sp)
  8009e0:	df000017 	ldw	fp,0(sp)
  8009e4:	dec00204 	addi	sp,sp,8
  8009e8:	f800283a 	ret

008009ec <startPVARPTimer>:

void startPVARPTimer(){
  8009ec:	defffe04 	addi	sp,sp,-8
  8009f0:	dfc00115 	stw	ra,4(sp)
  8009f4:	df000015 	stw	fp,0(sp)
  8009f8:	d839883a 	mov	fp,sp
	//start the timer, with timeout of PVARP_VALUE in ms
	PVARPTimerExpired = false;
  8009fc:	d02743c5 	stb	zero,-25329(gp)
	PVARPCount = 0;
  800a00:	d0273e15 	stw	zero,-25352(gp)
	StartSensingAS = false;
  800a04:	d0200105 	stb	zero,-32764(gp)
	PVARPRunning = true;
  800a08:	00800044 	movi	r2,1
  800a0c:	d0a74505 	stb	r2,-25324(gp)
	alt_alarm_start(&PVARP_TIMER, PVARP_VALUE, PVARP_ISR, PVARPContext);
  800a10:	d0a00317 	ldw	r2,-32756(gp)
  800a14:	100f883a 	mov	r7,r2
  800a18:	01802034 	movhi	r6,128
  800a1c:	31820704 	addi	r6,r6,2076
  800a20:	01400c84 	movi	r5,50
  800a24:	01002074 	movhi	r4,129
  800a28:	2102fa04 	addi	r4,r4,3048
  800a2c:	0808a440 	call	808a44 <alt_alarm_start>
}
  800a30:	0001883a 	nop
  800a34:	e037883a 	mov	sp,fp
  800a38:	dfc00117 	ldw	ra,4(sp)
  800a3c:	df000017 	ldw	fp,0(sp)
  800a40:	dec00204 	addi	sp,sp,8
  800a44:	f800283a 	ret

00800a48 <startVRPTimer>:

void startVRPTimer(){
  800a48:	defffe04 	addi	sp,sp,-8
  800a4c:	dfc00115 	stw	ra,4(sp)
  800a50:	df000015 	stw	fp,0(sp)
  800a54:	d839883a 	mov	fp,sp
	//start the timer, with timeout of VRP_VALUE in ms
	VRPTimerExpired = false;
  800a58:	d0274405 	stb	zero,-25328(gp)
	StartSensingVS = false;
  800a5c:	d0200145 	stb	zero,-32763(gp)
	VRPCount = 0;
  800a60:	d0273f15 	stw	zero,-25348(gp)
	VRPRunning = true;
  800a64:	00800044 	movi	r2,1
  800a68:	d0a74545 	stb	r2,-25323(gp)
	alt_alarm_start(&VRP_TIMER, VRP_VALUE, VRP_ISR, VRPContext);
  800a6c:	d0a00417 	ldw	r2,-32752(gp)
  800a70:	100f883a 	mov	r7,r2
  800a74:	01802034 	movhi	r6,128
  800a78:	31821b04 	addi	r6,r6,2156
  800a7c:	01402584 	movi	r5,150
  800a80:	01002074 	movhi	r4,129
  800a84:	2102f404 	addi	r4,r4,3024
  800a88:	0808a440 	call	808a44 <alt_alarm_start>
}
  800a8c:	0001883a 	nop
  800a90:	e037883a 	mov	sp,fp
  800a94:	dfc00117 	ldw	ra,4(sp)
  800a98:	df000017 	ldw	fp,0(sp)
  800a9c:	dec00204 	addi	sp,sp,8
  800aa0:	f800283a 	ret

00800aa4 <startAEITimer>:


void startAEITimer(){
  800aa4:	defffe04 	addi	sp,sp,-8
  800aa8:	dfc00115 	stw	ra,4(sp)
  800aac:	df000015 	stw	fp,0(sp)
  800ab0:	d839883a 	mov	fp,sp
	//start the timer, with timeout of AEI_VALUE in ms
	AEITimerExpired = false;
  800ab4:	d0274445 	stb	zero,-25327(gp)
	AEICount = 0;
  800ab8:	d0274015 	stw	zero,-25344(gp)
	AEIRunning = true;
  800abc:	00800044 	movi	r2,1
  800ac0:	d0a74585 	stb	r2,-25322(gp)
	alt_alarm_start(&AEI_TIMER, AEI_VALUE, AEI_ISR, AEIContext);
  800ac4:	d0a00517 	ldw	r2,-32748(gp)
  800ac8:	100f883a 	mov	r7,r2
  800acc:	01802034 	movhi	r6,128
  800ad0:	31822f04 	addi	r6,r6,2236
  800ad4:	0140c804 	movi	r5,800
  800ad8:	01002074 	movhi	r4,129
  800adc:	2102e204 	addi	r4,r4,2952
  800ae0:	0808a440 	call	808a44 <alt_alarm_start>
}
  800ae4:	0001883a 	nop
  800ae8:	e037883a 	mov	sp,fp
  800aec:	dfc00117 	ldw	ra,4(sp)
  800af0:	df000017 	ldw	fp,0(sp)
  800af4:	dec00204 	addi	sp,sp,8
  800af8:	f800283a 	ret

00800afc <startLRITimer>:

void startLRITimer(){
  800afc:	defffe04 	addi	sp,sp,-8
  800b00:	dfc00115 	stw	ra,4(sp)
  800b04:	df000015 	stw	fp,0(sp)
  800b08:	d839883a 	mov	fp,sp
	//start the timer, with timeout of LRI_VALUE in ms
	LRITimerExpired = false;
  800b0c:	d0274485 	stb	zero,-25326(gp)
	LRICount = 0;
  800b10:	d0274115 	stw	zero,-25340(gp)
	LRIRunning = true;
  800b14:	00800044 	movi	r2,1
  800b18:	d0a745c5 	stb	r2,-25321(gp)
	alt_alarm_start(&LRI_TIMER, LRI_VALUE, LRI_ISR, LRIContext);
  800b1c:	d0a00617 	ldw	r2,-32744(gp)
  800b20:	100f883a 	mov	r7,r2
  800b24:	01802034 	movhi	r6,128
  800b28:	31824104 	addi	r6,r6,2308
  800b2c:	01412c04 	movi	r5,1200
  800b30:	01002074 	movhi	r4,129
  800b34:	2102e804 	addi	r4,r4,2976
  800b38:	0808a440 	call	808a44 <alt_alarm_start>
}
  800b3c:	0001883a 	nop
  800b40:	e037883a 	mov	sp,fp
  800b44:	dfc00117 	ldw	ra,4(sp)
  800b48:	df000017 	ldw	fp,0(sp)
  800b4c:	dec00204 	addi	sp,sp,8
  800b50:	f800283a 	ret

00800b54 <startURITimer>:

void startURITimer(){
  800b54:	defffe04 	addi	sp,sp,-8
  800b58:	dfc00115 	stw	ra,4(sp)
  800b5c:	df000015 	stw	fp,0(sp)
  800b60:	d839883a 	mov	fp,sp
	//start the timer, with timeout of URI_VALUE in ms
	URITimerExpired =false;
  800b64:	d02001c5 	stb	zero,-32761(gp)
	URICount = 0;
  800b68:	d0274215 	stw	zero,-25336(gp)
	URIRunning = true;
  800b6c:	00800044 	movi	r2,1
  800b70:	d0a74605 	stb	r2,-25320(gp)
	alt_alarm_start(&URI_TIMER, URI_VALUE, URI_ISR, URIContext);
  800b74:	d0a00717 	ldw	r2,-32740(gp)
  800b78:	100f883a 	mov	r7,r2
  800b7c:	01802034 	movhi	r6,128
  800b80:	31825304 	addi	r6,r6,2380
  800b84:	0140e104 	movi	r5,900
  800b88:	01002074 	movhi	r4,129
  800b8c:	2102ee04 	addi	r4,r4,3000
  800b90:	0808a440 	call	808a44 <alt_alarm_start>
}
  800b94:	0001883a 	nop
  800b98:	e037883a 	mov	sp,fp
  800b9c:	dfc00117 	ldw	ra,4(sp)
  800ba0:	df000017 	ldw	fp,0(sp)
  800ba4:	dec00204 	addi	sp,sp,8
  800ba8:	f800283a 	ret

00800bac <pacemaker>:

void pacemaker(){
  800bac:	defffe04 	addi	sp,sp,-8
  800bb0:	dfc00115 	stw	ra,4(sp)
  800bb4:	df000015 	stw	fp,0(sp)
  800bb8:	d839883a 	mov	fp,sp
	switch(currentState){
  800bbc:	d0a74717 	ldw	r2,-25316(gp)
  800bc0:	10c00228 	cmpgeui	r3,r2,8
  800bc4:	18012b1e 	bne	r3,zero,801074 <pacemaker+0x4c8>
  800bc8:	100690ba 	slli	r3,r2,2
  800bcc:	00802034 	movhi	r2,128
  800bd0:	1082f804 	addi	r2,r2,3040
  800bd4:	1885883a 	add	r2,r3,r2
  800bd8:	10800017 	ldw	r2,0(r2)
  800bdc:	1000683a 	jmp	r2
  800be0:	00800c00 	call	800c0 <__alt_mem_sdram-0x77ff40>
  800be4:	00800ca8 	cmpgeui	r2,zero,50
  800be8:	00800eac 	andhi	r2,zero,58
  800bec:	00800ecc 	andi	r2,zero,59
  800bf0:	00800f3c 	xorhi	r2,zero,60
  800bf4:	00800fd4 	movui	r2,63
  800bf8:	00801000 	call	80100 <__alt_mem_sdram-0x77ff00>
  800bfc:	00800e28 	cmpgeui	r2,zero,56
		case init:
			if(StartSensingAS){
  800c00:	d0a00103 	ldbu	r2,-32764(gp)
  800c04:	10803fcc 	andi	r2,r2,255
  800c08:	10001426 	beq	r2,zero,800c5c <pacemaker+0xb0>
				if((AS)&&initial){
  800c0c:	d0a73c83 	ldbu	r2,-25358(gp)
  800c10:	10803fcc 	andi	r2,r2,255
  800c14:	10000626 	beq	r2,zero,800c30 <pacemaker+0x84>
  800c18:	d0a00183 	ldbu	r2,-32762(gp)
  800c1c:	10803fcc 	andi	r2,r2,255
  800c20:	10000326 	beq	r2,zero,800c30 <pacemaker+0x84>
					currentState = AVIStart;
  800c24:	00800084 	movi	r2,2
  800c28:	d0a74715 	stw	r2,-25316(gp)
					break;
  800c2c:	00011106 	br	801074 <pacemaker+0x4c8>
				}
				if(AP||ASensed){
  800c30:	d0a73cc3 	ldbu	r2,-25357(gp)
  800c34:	10803fcc 	andi	r2,r2,255
  800c38:	1000031e 	bne	r2,zero,800c48 <pacemaker+0x9c>
  800c3c:	d0a74303 	ldbu	r2,-25332(gp)
  800c40:	10803fcc 	andi	r2,r2,255
  800c44:	10000526 	beq	r2,zero,800c5c <pacemaker+0xb0>
					AP = false;
  800c48:	d0273cc5 	stb	zero,-25357(gp)
					ASensed = false;
  800c4c:	d0274305 	stb	zero,-25332(gp)
					currentState = AVIStart;
  800c50:	00800084 	movi	r2,2
  800c54:	d0a74715 	stw	r2,-25316(gp)
					break;
  800c58:	00010606 	br	801074 <pacemaker+0x4c8>
				}
			}
			if(StartSensingVS){
  800c5c:	d0a00143 	ldbu	r2,-32763(gp)
  800c60:	10803fcc 	andi	r2,r2,255
  800c64:	10010026 	beq	r2,zero,801068 <pacemaker+0x4bc>
				if(initial){
  800c68:	d0a00183 	ldbu	r2,-32762(gp)
  800c6c:	10803fcc 	andi	r2,r2,255
  800c70:	10000226 	beq	r2,zero,800c7c <pacemaker+0xd0>
					currentState = init;
  800c74:	d0274715 	stw	zero,-25316(gp)
					break;
  800c78:	0000fe06 	br	801074 <pacemaker+0x4c8>
				}else{
					if(VP||VSensed){
  800c7c:	d0a73c43 	ldbu	r2,-25359(gp)
  800c80:	10803fcc 	andi	r2,r2,255
  800c84:	1000031e 	bne	r2,zero,800c94 <pacemaker+0xe8>
  800c88:	d0a74343 	ldbu	r2,-25331(gp)
  800c8c:	10803fcc 	andi	r2,r2,255
  800c90:	1000f526 	beq	r2,zero,801068 <pacemaker+0x4bc>
					VP = false;
  800c94:	d0273c45 	stb	zero,-25359(gp)
					VSensed = false;
  800c98:	d0274345 	stb	zero,-25331(gp)
					currentState = StartOtherTimers;
  800c9c:	008000c4 	movi	r2,3
  800ca0:	d0a74715 	stw	r2,-25316(gp)
					break;
  800ca4:	0000f306 	br	801074 <pacemaker+0x4c8>
				}
			}
			break;

		case atrialPulseState:
			if(initial){
  800ca8:	d0a00183 	ldbu	r2,-32762(gp)
  800cac:	10803fcc 	andi	r2,r2,255
  800cb0:	10002326 	beq	r2,zero,800d40 <pacemaker+0x194>
				if(StartSensingVS){
  800cb4:	d0a00143 	ldbu	r2,-32763(gp)
  800cb8:	10803fcc 	andi	r2,r2,255
  800cbc:	10001d26 	beq	r2,zero,800d34 <pacemaker+0x188>
					if((AVITimerExpired == true)&&(!VS)){
  800cc0:	d0a74383 	ldbu	r2,-25330(gp)
  800cc4:	10803fcc 	andi	r2,r2,255
  800cc8:	10000a26 	beq	r2,zero,800cf4 <pacemaker+0x148>
  800ccc:	d0a73c03 	ldbu	r2,-25360(gp)
  800cd0:	1080005c 	xori	r2,r2,1
  800cd4:	10803fcc 	andi	r2,r2,255
  800cd8:	10000626 	beq	r2,zero,800cf4 <pacemaker+0x148>
						initial = false;
  800cdc:	d0200185 	stb	zero,-32762(gp)
						VP = true;
  800ce0:	00800044 	movi	r2,1
  800ce4:	d0a73c45 	stb	r2,-25359(gp)
						currentState = StopTimersAfterV;
  800ce8:	00800104 	movi	r2,4
  800cec:	d0a74715 	stw	r2,-25316(gp)
						break;
  800cf0:	0000e006 	br	801074 <pacemaker+0x4c8>
					}
					if((AVITimerExpired ==false)&&(VS)){
  800cf4:	d0a74383 	ldbu	r2,-25330(gp)
  800cf8:	1080005c 	xori	r2,r2,1
  800cfc:	10803fcc 	andi	r2,r2,255
  800d00:	10000926 	beq	r2,zero,800d28 <pacemaker+0x17c>
  800d04:	d0a73c03 	ldbu	r2,-25360(gp)
  800d08:	10803fcc 	andi	r2,r2,255
  800d0c:	10000626 	beq	r2,zero,800d28 <pacemaker+0x17c>
						initial = false;
  800d10:	d0200185 	stb	zero,-32762(gp)
						VSensed =true;
  800d14:	00800044 	movi	r2,1
  800d18:	d0a74345 	stb	r2,-25331(gp)
						currentState = StopTimersAfterV;
  800d1c:	00800104 	movi	r2,4
  800d20:	d0a74715 	stw	r2,-25316(gp)
						break;
  800d24:	0000d306 	br	801074 <pacemaker+0x4c8>
					}
					currentState = atrialPulseState;
  800d28:	00800044 	movi	r2,1
  800d2c:	d0a74715 	stw	r2,-25316(gp)
					break;
  800d30:	0000d006 	br	801074 <pacemaker+0x4c8>
				}else{
					currentState = atrialPulseState;
  800d34:	00800044 	movi	r2,1
  800d38:	d0a74715 	stw	r2,-25316(gp)
					break;
  800d3c:	0000cd06 	br	801074 <pacemaker+0x4c8>
				}
			}else{
				if(StartSensingVS){
  800d40:	d0a00143 	ldbu	r2,-32763(gp)
  800d44:	10803fcc 	andi	r2,r2,255
  800d48:	10003426 	beq	r2,zero,800e1c <pacemaker+0x270>
					if((URITimerExpired == false)){
  800d4c:	d0a001c3 	ldbu	r2,-32761(gp)
  800d50:	1080005c 	xori	r2,r2,1
  800d54:	10803fcc 	andi	r2,r2,255
  800d58:	10000926 	beq	r2,zero,800d80 <pacemaker+0x1d4>
						//case where we extend AVITimer is most important so check for Expirey of AVITimer
						//And Not the expirey of URITimer First
						if(AVITimerExpired==true){
  800d5c:	d0a74383 	ldbu	r2,-25330(gp)
  800d60:	10803fcc 	andi	r2,r2,255
  800d64:	10000326 	beq	r2,zero,800d74 <pacemaker+0x1c8>
							currentState = extendAVITimer;
  800d68:	008001c4 	movi	r2,7
  800d6c:	d0a74715 	stw	r2,-25316(gp)
							break;
  800d70:	0000c006 	br	801074 <pacemaker+0x4c8>
						}
						currentState = atrialPulseState;
  800d74:	00800044 	movi	r2,1
  800d78:	d0a74715 	stw	r2,-25316(gp)
						break;
  800d7c:	0000bd06 	br	801074 <pacemaker+0x4c8>
					}else{
						if(LRITimerExpired==false){
  800d80:	d0a74483 	ldbu	r2,-25326(gp)
  800d84:	1080005c 	xori	r2,r2,1
  800d88:	10803fcc 	andi	r2,r2,255
  800d8c:	10001b26 	beq	r2,zero,800dfc <pacemaker+0x250>
							if((AVITimerExpired==true)&&(!VS)){
  800d90:	d0a74383 	ldbu	r2,-25330(gp)
  800d94:	10803fcc 	andi	r2,r2,255
  800d98:	10000c26 	beq	r2,zero,800dcc <pacemaker+0x220>
  800d9c:	d0a73c03 	ldbu	r2,-25360(gp)
  800da0:	1080005c 	xori	r2,r2,1
  800da4:	10803fcc 	andi	r2,r2,255
  800da8:	10000826 	beq	r2,zero,800dcc <pacemaker+0x220>
								printf("Im here\r\n");
  800dac:	01002074 	movhi	r4,129
  800db0:	21334204 	addi	r4,r4,-13048
  800db4:	0805d3c0 	call	805d3c <puts>
								VP = true;
  800db8:	00800044 	movi	r2,1
  800dbc:	d0a73c45 	stb	r2,-25359(gp)
								currentState = StopTimersAfterV;
  800dc0:	00800104 	movi	r2,4
  800dc4:	d0a74715 	stw	r2,-25316(gp)
								break;
  800dc8:	0000aa06 	br	801074 <pacemaker+0x4c8>
							}
							if((AVITimerExpired ==false)&&(VS)){
  800dcc:	d0a74383 	ldbu	r2,-25330(gp)
  800dd0:	1080005c 	xori	r2,r2,1
  800dd4:	10803fcc 	andi	r2,r2,255
  800dd8:	10000d26 	beq	r2,zero,800e10 <pacemaker+0x264>
  800ddc:	d0a73c03 	ldbu	r2,-25360(gp)
  800de0:	10803fcc 	andi	r2,r2,255
  800de4:	10000a26 	beq	r2,zero,800e10 <pacemaker+0x264>
								VSensed =true;
  800de8:	00800044 	movi	r2,1
  800dec:	d0a74345 	stb	r2,-25331(gp)
								currentState = StopTimersAfterV;
  800df0:	00800104 	movi	r2,4
  800df4:	d0a74715 	stw	r2,-25316(gp)
								break;
  800df8:	00009e06 	br	801074 <pacemaker+0x4c8>
							}
						}else{
							VP = true;
  800dfc:	00800044 	movi	r2,1
  800e00:	d0a73c45 	stb	r2,-25359(gp)
							currentState = StopTimersAfterV;
  800e04:	00800104 	movi	r2,4
  800e08:	d0a74715 	stw	r2,-25316(gp)
							break;
  800e0c:	00009906 	br	801074 <pacemaker+0x4c8>
						}
						currentState = atrialPulseState;
  800e10:	00800044 	movi	r2,1
  800e14:	d0a74715 	stw	r2,-25316(gp)
						break;
  800e18:	00009606 	br	801074 <pacemaker+0x4c8>
					}
				}else{
					//loop until we startSensingVS
					currentState = atrialPulseState;
  800e1c:	00800044 	movi	r2,1
  800e20:	d0a74715 	stw	r2,-25316(gp)
					break;
  800e24:	00009306 	br	801074 <pacemaker+0x4c8>
				}
			}
			break;

		case extendAVITimer:
			if(StartSensingVS){
  800e28:	d0a00143 	ldbu	r2,-32763(gp)
  800e2c:	10803fcc 	andi	r2,r2,255
  800e30:	10001b26 	beq	r2,zero,800ea0 <pacemaker+0x2f4>
				if(URITimerExpired == false){
  800e34:	d0a001c3 	ldbu	r2,-32761(gp)
  800e38:	1080005c 	xori	r2,r2,1
  800e3c:	10803fcc 	andi	r2,r2,255
  800e40:	10000326 	beq	r2,zero,800e50 <pacemaker+0x2a4>
					currentState = extendAVITimer;
  800e44:	008001c4 	movi	r2,7
  800e48:	d0a74715 	stw	r2,-25316(gp)
					break;
  800e4c:	00008906 	br	801074 <pacemaker+0x4c8>
				}else{
					if(!VS){
  800e50:	d0a73c03 	ldbu	r2,-25360(gp)
  800e54:	1080005c 	xori	r2,r2,1
  800e58:	10803fcc 	andi	r2,r2,255
  800e5c:	10000526 	beq	r2,zero,800e74 <pacemaker+0x2c8>
						VP = true;
  800e60:	00800044 	movi	r2,1
  800e64:	d0a73c45 	stb	r2,-25359(gp)
						currentState = StopTimersAfterV;
  800e68:	00800104 	movi	r2,4
  800e6c:	d0a74715 	stw	r2,-25316(gp)
						break;
  800e70:	00008006 	br	801074 <pacemaker+0x4c8>
					}
					if(VS){
  800e74:	d0a73c03 	ldbu	r2,-25360(gp)
  800e78:	10803fcc 	andi	r2,r2,255
  800e7c:	10000526 	beq	r2,zero,800e94 <pacemaker+0x2e8>
						VSensed=true;
  800e80:	00800044 	movi	r2,1
  800e84:	d0a74345 	stb	r2,-25331(gp)
						currentState = StopTimersAfterV;
  800e88:	00800104 	movi	r2,4
  800e8c:	d0a74715 	stw	r2,-25316(gp)
						break;
  800e90:	00007806 	br	801074 <pacemaker+0x4c8>
					}
					currentState = extendAVITimer;
  800e94:	008001c4 	movi	r2,7
  800e98:	d0a74715 	stw	r2,-25316(gp)
				}
			}else{
				currentState = extendAVITimer;
				break;
			}
			break;
  800e9c:	00007506 	br	801074 <pacemaker+0x4c8>
						break;
					}
					currentState = extendAVITimer;
				}
			}else{
				currentState = extendAVITimer;
  800ea0:	008001c4 	movi	r2,7
  800ea4:	d0a74715 	stw	r2,-25316(gp)
				break;
  800ea8:	00007206 	br	801074 <pacemaker+0x4c8>
			}
			break;

		case AVIStart:
			if(AVIRunning ==false){
  800eac:	d0a744c3 	ldbu	r2,-25325(gp)
  800eb0:	1080005c 	xori	r2,r2,1
  800eb4:	10803fcc 	andi	r2,r2,255
  800eb8:	10000126 	beq	r2,zero,800ec0 <pacemaker+0x314>
				startAVITimer();
  800ebc:	08009940 	call	800994 <startAVITimer>
			}
			currentState = atrialPulseState;
  800ec0:	00800044 	movi	r2,1
  800ec4:	d0a74715 	stw	r2,-25316(gp)
			break;
  800ec8:	00006a06 	br	801074 <pacemaker+0x4c8>

		case StartOtherTimers:
			if(AEIRunning == false){
  800ecc:	d0a74583 	ldbu	r2,-25322(gp)
  800ed0:	1080005c 	xori	r2,r2,1
  800ed4:	10803fcc 	andi	r2,r2,255
  800ed8:	10000126 	beq	r2,zero,800ee0 <pacemaker+0x334>
			   startAEITimer();
  800edc:	0800aa40 	call	800aa4 <startAEITimer>
			}
			if(URIRunning == false){
  800ee0:	d0a74603 	ldbu	r2,-25320(gp)
  800ee4:	1080005c 	xori	r2,r2,1
  800ee8:	10803fcc 	andi	r2,r2,255
  800eec:	10000126 	beq	r2,zero,800ef4 <pacemaker+0x348>
				startURITimer();
  800ef0:	0800b540 	call	800b54 <startURITimer>
			}
			if(LRIRunning ==false){
  800ef4:	d0a745c3 	ldbu	r2,-25321(gp)
  800ef8:	1080005c 	xori	r2,r2,1
  800efc:	10803fcc 	andi	r2,r2,255
  800f00:	10000126 	beq	r2,zero,800f08 <pacemaker+0x35c>
				startLRITimer();
  800f04:	0800afc0 	call	800afc <startLRITimer>
			}
			if(VRPRunning ==false){
  800f08:	d0a74543 	ldbu	r2,-25323(gp)
  800f0c:	1080005c 	xori	r2,r2,1
  800f10:	10803fcc 	andi	r2,r2,255
  800f14:	10000126 	beq	r2,zero,800f1c <pacemaker+0x370>
				startVRPTimer();
  800f18:	0800a480 	call	800a48 <startVRPTimer>
			}
			if(PVARPRunning ==false){
  800f1c:	d0a74503 	ldbu	r2,-25324(gp)
  800f20:	1080005c 	xori	r2,r2,1
  800f24:	10803fcc 	andi	r2,r2,255
  800f28:	10000126 	beq	r2,zero,800f30 <pacemaker+0x384>
				startPVARPTimer();
  800f2c:	08009ec0 	call	8009ec <startPVARPTimer>
			}
			currentState = ventriculPulseState;
  800f30:	00800184 	movi	r2,6
  800f34:	d0a74715 	stw	r2,-25316(gp)
			break;
  800f38:	00004e06 	br	801074 <pacemaker+0x4c8>

		case StopTimersAfterV:

			if(AVIRunning ==true){
  800f3c:	d0a744c3 	ldbu	r2,-25325(gp)
  800f40:	10803fcc 	andi	r2,r2,255
  800f44:	10000626 	beq	r2,zero,800f60 <pacemaker+0x3b4>
				alt_alarm_stop(&AVI_TIMER);
  800f48:	01002074 	movhi	r4,129
  800f4c:	21030004 	addi	r4,r4,3072
  800f50:	08095000 	call	809500 <alt_alarm_stop>
				AVIRunning = false;
  800f54:	d02744c5 	stb	zero,-25325(gp)
				AVITimerExpired=true;
  800f58:	00800044 	movi	r2,1
  800f5c:	d0a74385 	stb	r2,-25330(gp)
			}

			if(AEIRunning == true){
  800f60:	d0a74583 	ldbu	r2,-25322(gp)
  800f64:	10803fcc 	andi	r2,r2,255
  800f68:	10000626 	beq	r2,zero,800f84 <pacemaker+0x3d8>
				alt_alarm_stop(&AEI_TIMER);
  800f6c:	01002074 	movhi	r4,129
  800f70:	2102e204 	addi	r4,r4,2952
  800f74:	08095000 	call	809500 <alt_alarm_stop>
				AEIRunning = false;
  800f78:	d0274585 	stb	zero,-25322(gp)
				AEITimerExpired=true;
  800f7c:	00800044 	movi	r2,1
  800f80:	d0a74445 	stb	r2,-25327(gp)
			}

			if(URIRunning == true){
  800f84:	d0a74603 	ldbu	r2,-25320(gp)
  800f88:	10803fcc 	andi	r2,r2,255
  800f8c:	10000626 	beq	r2,zero,800fa8 <pacemaker+0x3fc>
				alt_alarm_stop(&URI_TIMER);
  800f90:	01002074 	movhi	r4,129
  800f94:	2102ee04 	addi	r4,r4,3000
  800f98:	08095000 	call	809500 <alt_alarm_stop>
				URIRunning = false;
  800f9c:	d0274605 	stb	zero,-25320(gp)
				URITimerExpired=true;
  800fa0:	00800044 	movi	r2,1
  800fa4:	d0a001c5 	stb	r2,-32761(gp)
			}

			if(LRIRunning ==true){
  800fa8:	d0a745c3 	ldbu	r2,-25321(gp)
  800fac:	10803fcc 	andi	r2,r2,255
  800fb0:	10000626 	beq	r2,zero,800fcc <pacemaker+0x420>
				alt_alarm_stop(&LRI_TIMER);
  800fb4:	01002074 	movhi	r4,129
  800fb8:	2102e804 	addi	r4,r4,2976
  800fbc:	08095000 	call	809500 <alt_alarm_stop>
				LRIRunning = false;
  800fc0:	d02745c5 	stb	zero,-25321(gp)
				LRITimerExpired=true;
  800fc4:	00800044 	movi	r2,1
  800fc8:	d0a74485 	stb	r2,-25326(gp)
			}
			currentState = init;
  800fcc:	d0274715 	stw	zero,-25316(gp)
			break;
  800fd0:	00002806 	br	801074 <pacemaker+0x4c8>

		case StopTimersAfterA:

			if(AEIRunning == true){
  800fd4:	d0a74583 	ldbu	r2,-25322(gp)
  800fd8:	10803fcc 	andi	r2,r2,255
  800fdc:	10000626 	beq	r2,zero,800ff8 <pacemaker+0x44c>
				alt_alarm_stop(&AEI_TIMER);
  800fe0:	01002074 	movhi	r4,129
  800fe4:	2102e204 	addi	r4,r4,2952
  800fe8:	08095000 	call	809500 <alt_alarm_stop>
				AEIRunning =false;
  800fec:	d0274585 	stb	zero,-25322(gp)
				AEITimerExpired=true;
  800ff0:	00800044 	movi	r2,1
  800ff4:	d0a74445 	stb	r2,-25327(gp)
			}
			currentState = init;
  800ff8:	d0274715 	stw	zero,-25316(gp)
			break;
  800ffc:	00001d06 	br	801074 <pacemaker+0x4c8>

		case ventriculPulseState:
			if(StartSensingAS){
  801000:	d0a00103 	ldbu	r2,-32764(gp)
  801004:	10803fcc 	andi	r2,r2,255
  801008:	10001426 	beq	r2,zero,80105c <pacemaker+0x4b0>
				if(AEITimerExpired==true){
  80100c:	d0a74443 	ldbu	r2,-25327(gp)
  801010:	10803fcc 	andi	r2,r2,255
  801014:	10000926 	beq	r2,zero,80103c <pacemaker+0x490>
					if(!AS){
  801018:	d0a73c83 	ldbu	r2,-25358(gp)
  80101c:	1080005c 	xori	r2,r2,1
  801020:	10803fcc 	andi	r2,r2,255
  801024:	10001226 	beq	r2,zero,801070 <pacemaker+0x4c4>
						AP = true;
  801028:	00800044 	movi	r2,1
  80102c:	d0a73cc5 	stb	r2,-25357(gp)
						currentState = StopTimersAfterA;
  801030:	00800144 	movi	r2,5
  801034:	d0a74715 	stw	r2,-25316(gp)
						break;
  801038:	00000e06 	br	801074 <pacemaker+0x4c8>
					}
				}else{
					if(AS){
  80103c:	d0a73c83 	ldbu	r2,-25358(gp)
  801040:	10803fcc 	andi	r2,r2,255
  801044:	10000a26 	beq	r2,zero,801070 <pacemaker+0x4c4>
						ASensed = true;
  801048:	00800044 	movi	r2,1
  80104c:	d0a74305 	stb	r2,-25332(gp)
						currentState = StopTimersAfterA;
  801050:	00800144 	movi	r2,5
  801054:	d0a74715 	stw	r2,-25316(gp)
						break;
  801058:	00000606 	br	801074 <pacemaker+0x4c8>
					}
				}
			}else{
				currentState = ventriculPulseState;
  80105c:	00800184 	movi	r2,6
  801060:	d0a74715 	stw	r2,-25316(gp)
				break;
  801064:	00000306 	br	801074 <pacemaker+0x4c8>
					currentState = StartOtherTimers;
					break;
					}
				}
			}
			break;
  801068:	0001883a 	nop
  80106c:	00000106 	br	801074 <pacemaker+0x4c8>
				}
			}else{
				currentState = ventriculPulseState;
				break;
			}
			break;
  801070:	0001883a 	nop
	}
}
  801074:	0001883a 	nop
  801078:	e037883a 	mov	sp,fp
  80107c:	dfc00117 	ldw	ra,4(sp)
  801080:	df000017 	ldw	fp,0(sp)
  801084:	dec00204 	addi	sp,sp,8
  801088:	f800283a 	ret

0080108c <logic>:

#include "timing.h"

#include "sccharts.h"

void logic(TickData* d) {
  80108c:	defffa04 	addi	sp,sp,-24
  801090:	dfc00515 	stw	ra,20(sp)
  801094:	df000415 	stw	fp,16(sp)
  801098:	dc800315 	stw	r18,12(sp)
  80109c:	dc400215 	stw	r17,8(sp)
  8010a0:	dc000115 	stw	r16,4(sp)
  8010a4:	df000404 	addi	fp,sp,16
  8010a8:	e13ffc15 	stw	r4,-16(fp)
  d->AP = 0;
  8010ac:	e0bffc17 	ldw	r2,-16(fp)
  8010b0:	10001905 	stb	zero,100(r2)
  d->VP = 0;
  8010b4:	e0bffc17 	ldw	r2,-16(fp)
  8010b8:	10001945 	stb	zero,101(r2)
  d->AVI_event = 0;
  8010bc:	e0bffc17 	ldw	r2,-16(fp)
  8010c0:	10001985 	stb	zero,102(r2)
  d->PVARP_event = 0;
  8010c4:	e0bffc17 	ldw	r2,-16(fp)
  8010c8:	100019c5 	stb	zero,103(r2)
  d->VRP_event = 0;
  8010cc:	e0bffc17 	ldw	r2,-16(fp)
  8010d0:	10001a05 	stb	zero,104(r2)
  d->AEI_event = 0;
  8010d4:	e0bffc17 	ldw	r2,-16(fp)
  8010d8:	10001a45 	stb	zero,105(r2)
  d->LRI_event = 0;
  8010dc:	e0bffc17 	ldw	r2,-16(fp)
  8010e0:	10001a85 	stb	zero,106(r2)
  d->URI_event = 0;
  8010e4:	e0bffc17 	ldw	r2,-16(fp)
  8010e8:	10001ac5 	stb	zero,107(r2)
  d->_pre_AVI_event = d->_reg_AVI_event;
  8010ec:	e0bffc17 	ldw	r2,-16(fp)
  8010f0:	10c01b03 	ldbu	r3,108(r2)
  8010f4:	e0bffc17 	ldw	r2,-16(fp)
  8010f8:	10c01b45 	stb	r3,109(r2)
  d->_g104 = d->_pg86;
  8010fc:	e0bffc17 	ldw	r2,-16(fp)
  801100:	10c03f03 	ldbu	r3,252(r2)
  801104:	e0bffc17 	ldw	r2,-16(fp)
  801108:	10c02f85 	stb	r3,190(r2)
  d->_cg104 = d->_pre_AVI_event;
  80110c:	e0bffc17 	ldw	r2,-16(fp)
  801110:	10c01b43 	ldbu	r3,109(r2)
  801114:	e0bffc17 	ldw	r2,-16(fp)
  801118:	10c03b05 	stb	r3,236(r2)
  d->_g105 = d->_g104 && d->_cg104;
  80111c:	e0bffc17 	ldw	r2,-16(fp)
  801120:	10802f83 	ldbu	r2,190(r2)
  801124:	10803fcc 	andi	r2,r2,255
  801128:	1080201c 	xori	r2,r2,128
  80112c:	10bfe004 	addi	r2,r2,-128
  801130:	10000826 	beq	r2,zero,801154 <logic+0xc8>
  801134:	e0bffc17 	ldw	r2,-16(fp)
  801138:	10803b03 	ldbu	r2,236(r2)
  80113c:	10803fcc 	andi	r2,r2,255
  801140:	1080201c 	xori	r2,r2,128
  801144:	10bfe004 	addi	r2,r2,-128
  801148:	10000226 	beq	r2,zero,801154 <logic+0xc8>
  80114c:	00800044 	movi	r2,1
  801150:	00000106 	br	801158 <logic+0xcc>
  801154:	0005883a 	mov	r2,zero
  801158:	1007883a 	mov	r3,r2
  80115c:	e0bffc17 	ldw	r2,-16(fp)
  801160:	10c02fc5 	stb	r3,191(r2)
  if (d->_g105) {
  801164:	e0bffc17 	ldw	r2,-16(fp)
  801168:	10802fc3 	ldbu	r2,191(r2)
  80116c:	10803fcc 	andi	r2,r2,255
  801170:	1080201c 	xori	r2,r2,128
  801174:	10bfe004 	addi	r2,r2,-128
  801178:	10000326 	beq	r2,zero,801188 <logic+0xfc>
    d->URI = 1;
  80117c:	e0bffc17 	ldw	r2,-16(fp)
  801180:	00c00044 	movi	r3,1
  801184:	10c00845 	stb	r3,33(r2)
  }
  d->_g147 = d->_pg102;
  801188:	e0bffc17 	ldw	r2,-16(fp)
  80118c:	10c03f43 	ldbu	r3,253(r2)
  801190:	e0bffc17 	ldw	r2,-16(fp)
  801194:	10c03345 	stb	r3,205(r2)
  if (d->_g147) {
  801198:	e0bffc17 	ldw	r2,-16(fp)
  80119c:	10803343 	ldbu	r2,205(r2)
  8011a0:	10803fcc 	andi	r2,r2,255
  8011a4:	1080201c 	xori	r2,r2,128
  8011a8:	10bfe004 	addi	r2,r2,-128
  8011ac:	10001226 	beq	r2,zero,8011f8 <logic+0x16c>
    d->_region5_rURI_URI_clock += d->deltaT;
  8011b0:	e13ffc17 	ldw	r4,-16(fp)
  8011b4:	20801317 	ldw	r2,76(r4)
  8011b8:	20c01417 	ldw	r3,80(r4)
  8011bc:	e1bffc17 	ldw	r6,-16(fp)
  8011c0:	31001517 	ldw	r4,84(r6)
  8011c4:	31401617 	ldw	r5,88(r6)
  8011c8:	200d883a 	mov	r6,r4
  8011cc:	280f883a 	mov	r7,r5
  8011d0:	1009883a 	mov	r4,r2
  8011d4:	180b883a 	mov	r5,r3
  8011d8:	08047c40 	call	8047c4 <__adddf3>
  8011dc:	1009883a 	mov	r4,r2
  8011e0:	180b883a 	mov	r5,r3
  8011e4:	2005883a 	mov	r2,r4
  8011e8:	2807883a 	mov	r3,r5
  8011ec:	e13ffc17 	ldw	r4,-16(fp)
  8011f0:	20801315 	stw	r2,76(r4)
  8011f4:	20c01415 	stw	r3,80(r4)
  }
  d->_g117 = d->_pg108;
  8011f8:	e0bffc17 	ldw	r2,-16(fp)
  8011fc:	10c03f83 	ldbu	r3,254(r2)
  801200:	e0bffc17 	ldw	r2,-16(fp)
  801204:	10c03205 	stb	r3,200(r2)
  d->_cg117 = d->_region5_rURI_URI_clock >= d->URI_CON;
  801208:	e0bffc17 	ldw	r2,-16(fp)
  80120c:	14001317 	ldw	r16,76(r2)
  801210:	14401417 	ldw	r17,80(r2)
  801214:	e0bffc17 	ldw	r2,-16(fp)
  801218:	10800617 	ldw	r2,24(r2)
  80121c:	1009883a 	mov	r4,r2
  801220:	0805b3c0 	call	805b3c <__floatsidf>
  801224:	1009883a 	mov	r4,r2
  801228:	180b883a 	mov	r5,r3
  80122c:	04800044 	movi	r18,1
  801230:	200d883a 	mov	r6,r4
  801234:	280f883a 	mov	r7,r5
  801238:	8009883a 	mov	r4,r16
  80123c:	880b883a 	mov	r5,r17
  801240:	08050700 	call	805070 <__gedf2>
  801244:	1000010e 	bge	r2,zero,80124c <logic+0x1c0>
  801248:	0025883a 	mov	r18,zero
  80124c:	9007883a 	mov	r3,r18
  801250:	e0bffc17 	ldw	r2,-16(fp)
  801254:	10c03c05 	stb	r3,240(r2)
  d->_g118 = d->_g117 && d->_cg117;
  801258:	e0bffc17 	ldw	r2,-16(fp)
  80125c:	10803203 	ldbu	r2,200(r2)
  801260:	10803fcc 	andi	r2,r2,255
  801264:	1080201c 	xori	r2,r2,128
  801268:	10bfe004 	addi	r2,r2,-128
  80126c:	10000826 	beq	r2,zero,801290 <logic+0x204>
  801270:	e0bffc17 	ldw	r2,-16(fp)
  801274:	10803c03 	ldbu	r2,240(r2)
  801278:	10803fcc 	andi	r2,r2,255
  80127c:	1080201c 	xori	r2,r2,128
  801280:	10bfe004 	addi	r2,r2,-128
  801284:	10000226 	beq	r2,zero,801290 <logic+0x204>
  801288:	00800044 	movi	r2,1
  80128c:	00000106 	br	801294 <logic+0x208>
  801290:	0005883a 	mov	r2,zero
  801294:	1007883a 	mov	r3,r2
  801298:	e0bffc17 	ldw	r2,-16(fp)
  80129c:	10c03245 	stb	r3,201(r2)
  if (d->_g118) {
  8012a0:	e0bffc17 	ldw	r2,-16(fp)
  8012a4:	10803243 	ldbu	r2,201(r2)
  8012a8:	10803fcc 	andi	r2,r2,255
  8012ac:	1080201c 	xori	r2,r2,128
  8012b0:	10bfe004 	addi	r2,r2,-128
  8012b4:	10000326 	beq	r2,zero,8012c4 <logic+0x238>
    d->_PaceMaker_local__Atrig7 = 1;
  8012b8:	e0bffc17 	ldw	r2,-16(fp)
  8012bc:	00c00044 	movi	r3,1
  8012c0:	10c01dc5 	stb	r3,119(r2)
  }
  if (d->_g105) {
  8012c4:	e0bffc17 	ldw	r2,-16(fp)
  8012c8:	10802fc3 	ldbu	r2,191(r2)
  8012cc:	10803fcc 	andi	r2,r2,255
  8012d0:	1080201c 	xori	r2,r2,128
  8012d4:	10bfe004 	addi	r2,r2,-128
  8012d8:	10000526 	beq	r2,zero,8012f0 <logic+0x264>
    d->_region5_rURI_URI_clock = 0;
  8012dc:	e0bffc17 	ldw	r2,-16(fp)
  8012e0:	10001315 	stw	zero,76(r2)
  8012e4:	10001415 	stw	zero,80(r2)
    d->_PaceMaker_local__Atrig7 = 0;
  8012e8:	e0bffc17 	ldw	r2,-16(fp)
  8012ec:	10001dc5 	stb	zero,119(r2)
  }
  d->_g111 = d->_pg110;
  8012f0:	e0bffc17 	ldw	r2,-16(fp)
  8012f4:	10c03fc3 	ldbu	r3,255(r2)
  8012f8:	e0bffc17 	ldw	r2,-16(fp)
  8012fc:	10c03105 	stb	r3,196(r2)
  d->_g114 = d->_pg113;
  801300:	e0bffc17 	ldw	r2,-16(fp)
  801304:	10c04003 	ldbu	r3,256(r2)
  801308:	e0bffc17 	ldw	r2,-16(fp)
  80130c:	10c031c5 	stb	r3,199(r2)
  d->_g114 = d->_g105 || d->_g111 || d->_g114;
  801310:	e0bffc17 	ldw	r2,-16(fp)
  801314:	10802fc3 	ldbu	r2,191(r2)
  801318:	10803fcc 	andi	r2,r2,255
  80131c:	1080201c 	xori	r2,r2,128
  801320:	10bfe004 	addi	r2,r2,-128
  801324:	10000c1e 	bne	r2,zero,801358 <logic+0x2cc>
  801328:	e0bffc17 	ldw	r2,-16(fp)
  80132c:	10803103 	ldbu	r2,196(r2)
  801330:	10803fcc 	andi	r2,r2,255
  801334:	1080201c 	xori	r2,r2,128
  801338:	10bfe004 	addi	r2,r2,-128
  80133c:	1000061e 	bne	r2,zero,801358 <logic+0x2cc>
  801340:	e0bffc17 	ldw	r2,-16(fp)
  801344:	108031c3 	ldbu	r2,199(r2)
  801348:	10803fcc 	andi	r2,r2,255
  80134c:	1080201c 	xori	r2,r2,128
  801350:	10bfe004 	addi	r2,r2,-128
  801354:	10000226 	beq	r2,zero,801360 <logic+0x2d4>
  801358:	00800044 	movi	r2,1
  80135c:	00000106 	br	801364 <logic+0x2d8>
  801360:	0005883a 	mov	r2,zero
  801364:	1007883a 	mov	r3,r2
  801368:	e0bffc17 	ldw	r2,-16(fp)
  80136c:	10c031c5 	stb	r3,199(r2)
  d->_cg107 = d->_region5_rURI_URI_clock < d->URI_CON;
  801370:	e0bffc17 	ldw	r2,-16(fp)
  801374:	14001317 	ldw	r16,76(r2)
  801378:	14401417 	ldw	r17,80(r2)
  80137c:	e0bffc17 	ldw	r2,-16(fp)
  801380:	10800617 	ldw	r2,24(r2)
  801384:	1009883a 	mov	r4,r2
  801388:	0805b3c0 	call	805b3c <__floatsidf>
  80138c:	1009883a 	mov	r4,r2
  801390:	180b883a 	mov	r5,r3
  801394:	04800044 	movi	r18,1
  801398:	200d883a 	mov	r6,r4
  80139c:	280f883a 	mov	r7,r5
  8013a0:	8009883a 	mov	r4,r16
  8013a4:	880b883a 	mov	r5,r17
  8013a8:	080514c0 	call	80514c <__ledf2>
  8013ac:	10000116 	blt	r2,zero,8013b4 <logic+0x328>
  8013b0:	0025883a 	mov	r18,zero
  8013b4:	9007883a 	mov	r3,r18
  8013b8:	e0bffc17 	ldw	r2,-16(fp)
  8013bc:	10c03b45 	stb	r3,237(r2)
  d->_g111 = d->_g114 && !d->_cg107;
  8013c0:	e0bffc17 	ldw	r2,-16(fp)
  8013c4:	108031c3 	ldbu	r2,199(r2)
  8013c8:	10803fcc 	andi	r2,r2,255
  8013cc:	1080201c 	xori	r2,r2,128
  8013d0:	10bfe004 	addi	r2,r2,-128
  8013d4:	10000826 	beq	r2,zero,8013f8 <logic+0x36c>
  8013d8:	e0bffc17 	ldw	r2,-16(fp)
  8013dc:	10803b43 	ldbu	r2,237(r2)
  8013e0:	10803fcc 	andi	r2,r2,255
  8013e4:	1080201c 	xori	r2,r2,128
  8013e8:	10bfe004 	addi	r2,r2,-128
  8013ec:	1000021e 	bne	r2,zero,8013f8 <logic+0x36c>
  8013f0:	00800044 	movi	r2,1
  8013f4:	00000106 	br	8013fc <logic+0x370>
  8013f8:	0005883a 	mov	r2,zero
  8013fc:	1007883a 	mov	r3,r2
  801400:	e0bffc17 	ldw	r2,-16(fp)
  801404:	10c03105 	stb	r3,196(r2)
  d->_cg112 = d->_PaceMaker_local__Atrig7;
  801408:	e0bffc17 	ldw	r2,-16(fp)
  80140c:	10c01dc3 	ldbu	r3,119(r2)
  801410:	e0bffc17 	ldw	r2,-16(fp)
  801414:	10c03bc5 	stb	r3,239(r2)
  d->_g113 = d->_g111 && !d->_cg112;
  801418:	e0bffc17 	ldw	r2,-16(fp)
  80141c:	10803103 	ldbu	r2,196(r2)
  801420:	10803fcc 	andi	r2,r2,255
  801424:	1080201c 	xori	r2,r2,128
  801428:	10bfe004 	addi	r2,r2,-128
  80142c:	10000826 	beq	r2,zero,801450 <logic+0x3c4>
  801430:	e0bffc17 	ldw	r2,-16(fp)
  801434:	10803bc3 	ldbu	r2,239(r2)
  801438:	10803fcc 	andi	r2,r2,255
  80143c:	1080201c 	xori	r2,r2,128
  801440:	10bfe004 	addi	r2,r2,-128
  801444:	1000021e 	bne	r2,zero,801450 <logic+0x3c4>
  801448:	00800044 	movi	r2,1
  80144c:	00000106 	br	801454 <logic+0x3c8>
  801450:	0005883a 	mov	r2,zero
  801454:	1007883a 	mov	r3,r2
  801458:	e0bffc17 	ldw	r2,-16(fp)
  80145c:	10c03185 	stb	r3,198(r2)
  d->sleepT = 1000.0;
  801460:	e0fffc17 	ldw	r3,-16(fp)
  801464:	18001715 	stw	zero,92(r3)
  801468:	009023f4 	movhi	r2,16527
  80146c:	10900004 	addi	r2,r2,16384
  801470:	18801815 	stw	r2,96(r3)
  d->_g107 = d->_g114 && d->_cg107;
  801474:	e0bffc17 	ldw	r2,-16(fp)
  801478:	108031c3 	ldbu	r2,199(r2)
  80147c:	10803fcc 	andi	r2,r2,255
  801480:	1080201c 	xori	r2,r2,128
  801484:	10bfe004 	addi	r2,r2,-128
  801488:	10000826 	beq	r2,zero,8014ac <logic+0x420>
  80148c:	e0bffc17 	ldw	r2,-16(fp)
  801490:	10803b43 	ldbu	r2,237(r2)
  801494:	10803fcc 	andi	r2,r2,255
  801498:	1080201c 	xori	r2,r2,128
  80149c:	10bfe004 	addi	r2,r2,-128
  8014a0:	10000226 	beq	r2,zero,8014ac <logic+0x420>
  8014a4:	00800044 	movi	r2,1
  8014a8:	00000106 	br	8014b0 <logic+0x424>
  8014ac:	0005883a 	mov	r2,zero
  8014b0:	1007883a 	mov	r3,r2
  8014b4:	e0bffc17 	ldw	r2,-16(fp)
  8014b8:	10c03005 	stb	r3,192(r2)
  if (d->_g107) {
  8014bc:	e0bffc17 	ldw	r2,-16(fp)
  8014c0:	10803003 	ldbu	r2,192(r2)
  8014c4:	10803fcc 	andi	r2,r2,255
  8014c8:	1080201c 	xori	r2,r2,128
  8014cc:	10bfe004 	addi	r2,r2,-128
  8014d0:	10003426 	beq	r2,zero,8015a4 <logic+0x518>
    d->sleepT = (d->sleepT < (d->URI_CON - d->_region5_rURI_URI_clock)) ? d->sleepT : (d->URI_CON - d->_region5_rURI_URI_clock);
  8014d4:	e0bffc17 	ldw	r2,-16(fp)
  8014d8:	14001717 	ldw	r16,92(r2)
  8014dc:	14401817 	ldw	r17,96(r2)
  8014e0:	e0bffc17 	ldw	r2,-16(fp)
  8014e4:	10800617 	ldw	r2,24(r2)
  8014e8:	1009883a 	mov	r4,r2
  8014ec:	0805b3c0 	call	805b3c <__floatsidf>
  8014f0:	1011883a 	mov	r8,r2
  8014f4:	1813883a 	mov	r9,r3
  8014f8:	e13ffc17 	ldw	r4,-16(fp)
  8014fc:	20801317 	ldw	r2,76(r4)
  801500:	20c01417 	ldw	r3,80(r4)
  801504:	100d883a 	mov	r6,r2
  801508:	180f883a 	mov	r7,r3
  80150c:	4009883a 	mov	r4,r8
  801510:	480b883a 	mov	r5,r9
  801514:	08052400 	call	805240 <__subdf3>
  801518:	1009883a 	mov	r4,r2
  80151c:	180b883a 	mov	r5,r3
  801520:	2005883a 	mov	r2,r4
  801524:	2807883a 	mov	r3,r5
  801528:	100d883a 	mov	r6,r2
  80152c:	180f883a 	mov	r7,r3
  801530:	8009883a 	mov	r4,r16
  801534:	880b883a 	mov	r5,r17
  801538:	080514c0 	call	80514c <__ledf2>
  80153c:	1000040e 	bge	r2,zero,801550 <logic+0x4c4>
  801540:	e13ffc17 	ldw	r4,-16(fp)
  801544:	20801717 	ldw	r2,92(r4)
  801548:	20c01817 	ldw	r3,96(r4)
  80154c:	00001206 	br	801598 <logic+0x50c>
  801550:	e0bffc17 	ldw	r2,-16(fp)
  801554:	10800617 	ldw	r2,24(r2)
  801558:	1009883a 	mov	r4,r2
  80155c:	0805b3c0 	call	805b3c <__floatsidf>
  801560:	1011883a 	mov	r8,r2
  801564:	1813883a 	mov	r9,r3
  801568:	e13ffc17 	ldw	r4,-16(fp)
  80156c:	20801317 	ldw	r2,76(r4)
  801570:	20c01417 	ldw	r3,80(r4)
  801574:	100d883a 	mov	r6,r2
  801578:	180f883a 	mov	r7,r3
  80157c:	4009883a 	mov	r4,r8
  801580:	480b883a 	mov	r5,r9
  801584:	08052400 	call	805240 <__subdf3>
  801588:	1009883a 	mov	r4,r2
  80158c:	180b883a 	mov	r5,r3
  801590:	2005883a 	mov	r2,r4
  801594:	2807883a 	mov	r3,r5
  801598:	e13ffc17 	ldw	r4,-16(fp)
  80159c:	20801715 	stw	r2,92(r4)
  8015a0:	20c01815 	stw	r3,96(r4)
  }
  d->_cg108 = d->_PaceMaker_local__Atrig7;
  8015a4:	e0bffc17 	ldw	r2,-16(fp)
  8015a8:	10c01dc3 	ldbu	r3,119(r2)
  8015ac:	e0bffc17 	ldw	r2,-16(fp)
  8015b0:	10c03b85 	stb	r3,238(r2)
  d->_g110 = d->_g107 && !d->_cg108;
  8015b4:	e0bffc17 	ldw	r2,-16(fp)
  8015b8:	10803003 	ldbu	r2,192(r2)
  8015bc:	10803fcc 	andi	r2,r2,255
  8015c0:	1080201c 	xori	r2,r2,128
  8015c4:	10bfe004 	addi	r2,r2,-128
  8015c8:	10000826 	beq	r2,zero,8015ec <logic+0x560>
  8015cc:	e0bffc17 	ldw	r2,-16(fp)
  8015d0:	10803b83 	ldbu	r2,238(r2)
  8015d4:	10803fcc 	andi	r2,r2,255
  8015d8:	1080201c 	xori	r2,r2,128
  8015dc:	10bfe004 	addi	r2,r2,-128
  8015e0:	1000021e 	bne	r2,zero,8015ec <logic+0x560>
  8015e4:	00800044 	movi	r2,1
  8015e8:	00000106 	br	8015f0 <logic+0x564>
  8015ec:	0005883a 	mov	r2,zero
  8015f0:	1007883a 	mov	r3,r2
  8015f4:	e0bffc17 	ldw	r2,-16(fp)
  8015f8:	10c030c5 	stb	r3,195(r2)
  d->_g109_e1 = !(d->_g113 || d->_g110);
  8015fc:	e0bffc17 	ldw	r2,-16(fp)
  801600:	10803183 	ldbu	r2,198(r2)
  801604:	10803fcc 	andi	r2,r2,255
  801608:	1080201c 	xori	r2,r2,128
  80160c:	10bfe004 	addi	r2,r2,-128
  801610:	1000081e 	bne	r2,zero,801634 <logic+0x5a8>
  801614:	e0bffc17 	ldw	r2,-16(fp)
  801618:	108030c3 	ldbu	r2,195(r2)
  80161c:	10803fcc 	andi	r2,r2,255
  801620:	1080201c 	xori	r2,r2,128
  801624:	10bfe004 	addi	r2,r2,-128
  801628:	1000021e 	bne	r2,zero,801634 <logic+0x5a8>
  80162c:	00800044 	movi	r2,1
  801630:	00000106 	br	801638 <logic+0x5ac>
  801634:	0005883a 	mov	r2,zero
  801638:	1007883a 	mov	r3,r2
  80163c:	e0bffc17 	ldw	r2,-16(fp)
  801640:	10c03e45 	stb	r3,249(r2)
  d->_g112 = (d->_g107 && d->_cg108) || (d->_g111 && d->_cg112);
  801644:	e0bffc17 	ldw	r2,-16(fp)
  801648:	10803003 	ldbu	r2,192(r2)
  80164c:	10803fcc 	andi	r2,r2,255
  801650:	1080201c 	xori	r2,r2,128
  801654:	10bfe004 	addi	r2,r2,-128
  801658:	10000626 	beq	r2,zero,801674 <logic+0x5e8>
  80165c:	e0bffc17 	ldw	r2,-16(fp)
  801660:	10803b83 	ldbu	r2,238(r2)
  801664:	10803fcc 	andi	r2,r2,255
  801668:	1080201c 	xori	r2,r2,128
  80166c:	10bfe004 	addi	r2,r2,-128
  801670:	10000c1e 	bne	r2,zero,8016a4 <logic+0x618>
  801674:	e0bffc17 	ldw	r2,-16(fp)
  801678:	10803103 	ldbu	r2,196(r2)
  80167c:	10803fcc 	andi	r2,r2,255
  801680:	1080201c 	xori	r2,r2,128
  801684:	10bfe004 	addi	r2,r2,-128
  801688:	10000826 	beq	r2,zero,8016ac <logic+0x620>
  80168c:	e0bffc17 	ldw	r2,-16(fp)
  801690:	10803bc3 	ldbu	r2,239(r2)
  801694:	10803fcc 	andi	r2,r2,255
  801698:	1080201c 	xori	r2,r2,128
  80169c:	10bfe004 	addi	r2,r2,-128
  8016a0:	10000226 	beq	r2,zero,8016ac <logic+0x620>
  8016a4:	00800044 	movi	r2,1
  8016a8:	00000106 	br	8016b0 <logic+0x624>
  8016ac:	0005883a 	mov	r2,zero
  8016b0:	1007883a 	mov	r3,r2
  8016b4:	e0bffc17 	ldw	r2,-16(fp)
  8016b8:	10c03145 	stb	r3,197(r2)
  d->_g108 = d->_g105 || (d->_g117 && !d->_cg117);
  8016bc:	e0bffc17 	ldw	r2,-16(fp)
  8016c0:	10802fc3 	ldbu	r2,191(r2)
  8016c4:	10803fcc 	andi	r2,r2,255
  8016c8:	1080201c 	xori	r2,r2,128
  8016cc:	10bfe004 	addi	r2,r2,-128
  8016d0:	10000c1e 	bne	r2,zero,801704 <logic+0x678>
  8016d4:	e0bffc17 	ldw	r2,-16(fp)
  8016d8:	10803203 	ldbu	r2,200(r2)
  8016dc:	10803fcc 	andi	r2,r2,255
  8016e0:	1080201c 	xori	r2,r2,128
  8016e4:	10bfe004 	addi	r2,r2,-128
  8016e8:	10000826 	beq	r2,zero,80170c <logic+0x680>
  8016ec:	e0bffc17 	ldw	r2,-16(fp)
  8016f0:	10803c03 	ldbu	r2,240(r2)
  8016f4:	10803fcc 	andi	r2,r2,255
  8016f8:	1080201c 	xori	r2,r2,128
  8016fc:	10bfe004 	addi	r2,r2,-128
  801700:	1000021e 	bne	r2,zero,80170c <logic+0x680>
  801704:	00800044 	movi	r2,1
  801708:	00000106 	br	801710 <logic+0x684>
  80170c:	0005883a 	mov	r2,zero
  801710:	1007883a 	mov	r3,r2
  801714:	e0bffc17 	ldw	r2,-16(fp)
  801718:	10c03045 	stb	r3,193(r2)
  d->_g105 = !d->_g108;
  80171c:	e0bffc17 	ldw	r2,-16(fp)
  801720:	10803043 	ldbu	r2,193(r2)
  801724:	10803fcc 	andi	r2,r2,255
  801728:	1080201c 	xori	r2,r2,128
  80172c:	10bfe004 	addi	r2,r2,-128
  801730:	1005003a 	cmpeq	r2,r2,zero
  801734:	1007883a 	mov	r3,r2
  801738:	e0bffc17 	ldw	r2,-16(fp)
  80173c:	10c02fc5 	stb	r3,191(r2)
  d->_g117 = (d->_g109_e1 || d->_g112) && (d->_g105 || d->_g118) && (d->_g112 || d->_g118);
  801740:	e0bffc17 	ldw	r2,-16(fp)
  801744:	10803e43 	ldbu	r2,249(r2)
  801748:	10803fcc 	andi	r2,r2,255
  80174c:	1080201c 	xori	r2,r2,128
  801750:	10bfe004 	addi	r2,r2,-128
  801754:	1000061e 	bne	r2,zero,801770 <logic+0x6e4>
  801758:	e0bffc17 	ldw	r2,-16(fp)
  80175c:	10803143 	ldbu	r2,197(r2)
  801760:	10803fcc 	andi	r2,r2,255
  801764:	1080201c 	xori	r2,r2,128
  801768:	10bfe004 	addi	r2,r2,-128
  80176c:	10001a26 	beq	r2,zero,8017d8 <logic+0x74c>
  801770:	e0bffc17 	ldw	r2,-16(fp)
  801774:	10802fc3 	ldbu	r2,191(r2)
  801778:	10803fcc 	andi	r2,r2,255
  80177c:	1080201c 	xori	r2,r2,128
  801780:	10bfe004 	addi	r2,r2,-128
  801784:	1000061e 	bne	r2,zero,8017a0 <logic+0x714>
  801788:	e0bffc17 	ldw	r2,-16(fp)
  80178c:	10803243 	ldbu	r2,201(r2)
  801790:	10803fcc 	andi	r2,r2,255
  801794:	1080201c 	xori	r2,r2,128
  801798:	10bfe004 	addi	r2,r2,-128
  80179c:	10000e26 	beq	r2,zero,8017d8 <logic+0x74c>
  8017a0:	e0bffc17 	ldw	r2,-16(fp)
  8017a4:	10803143 	ldbu	r2,197(r2)
  8017a8:	10803fcc 	andi	r2,r2,255
  8017ac:	1080201c 	xori	r2,r2,128
  8017b0:	10bfe004 	addi	r2,r2,-128
  8017b4:	1000061e 	bne	r2,zero,8017d0 <logic+0x744>
  8017b8:	e0bffc17 	ldw	r2,-16(fp)
  8017bc:	10803243 	ldbu	r2,201(r2)
  8017c0:	10803fcc 	andi	r2,r2,255
  8017c4:	1080201c 	xori	r2,r2,128
  8017c8:	10bfe004 	addi	r2,r2,-128
  8017cc:	10000226 	beq	r2,zero,8017d8 <logic+0x74c>
  8017d0:	00800044 	movi	r2,1
  8017d4:	00000106 	br	8017dc <logic+0x750>
  8017d8:	0005883a 	mov	r2,zero
  8017dc:	1007883a 	mov	r3,r2
  8017e0:	e0bffc17 	ldw	r2,-16(fp)
  8017e4:	10c03205 	stb	r3,200(r2)
  d->_g118_e2 = d->_GO || d->_g117;
  8017e8:	e0bffc17 	ldw	r2,-16(fp)
  8017ec:	108033c3 	ldbu	r2,207(r2)
  8017f0:	10803fcc 	andi	r2,r2,255
  8017f4:	1080201c 	xori	r2,r2,128
  8017f8:	10bfe004 	addi	r2,r2,-128
  8017fc:	1000061e 	bne	r2,zero,801818 <logic+0x78c>
  801800:	e0bffc17 	ldw	r2,-16(fp)
  801804:	10803203 	ldbu	r2,200(r2)
  801808:	10803fcc 	andi	r2,r2,255
  80180c:	1080201c 	xori	r2,r2,128
  801810:	10bfe004 	addi	r2,r2,-128
  801814:	10000226 	beq	r2,zero,801820 <logic+0x794>
  801818:	00800044 	movi	r2,1
  80181c:	00000106 	br	801824 <logic+0x798>
  801820:	0005883a 	mov	r2,zero
  801824:	1007883a 	mov	r3,r2
  801828:	e0bffc17 	ldw	r2,-16(fp)
  80182c:	10c03e85 	stb	r3,250(r2)
  if (d->_g118_e2) {
  801830:	e0bffc17 	ldw	r2,-16(fp)
  801834:	10803e83 	ldbu	r2,250(r2)
  801838:	10803fcc 	andi	r2,r2,255
  80183c:	1080201c 	xori	r2,r2,128
  801840:	10bfe004 	addi	r2,r2,-128
  801844:	10000226 	beq	r2,zero,801850 <logic+0x7c4>
    d->URI = 0;
  801848:	e0bffc17 	ldw	r2,-16(fp)
  80184c:	10000845 	stb	zero,33(r2)
  }
  d->_g109 = d->_pg86_e1;
  801850:	e0bffc17 	ldw	r2,-16(fp)
  801854:	10c04043 	ldbu	r3,257(r2)
  801858:	e0bffc17 	ldw	r2,-16(fp)
  80185c:	10c03085 	stb	r3,194(r2)
  if (d->_g109) {
  801860:	e0bffc17 	ldw	r2,-16(fp)
  801864:	10803083 	ldbu	r2,194(r2)
  801868:	10803fcc 	andi	r2,r2,255
  80186c:	1080201c 	xori	r2,r2,128
  801870:	10bfe004 	addi	r2,r2,-128
  801874:	10001226 	beq	r2,zero,8018c0 <logic+0x834>
    d->_region0_rAVI_AVI_clock += d->deltaT;
  801878:	e13ffc17 	ldw	r4,-16(fp)
  80187c:	20800917 	ldw	r2,36(r4)
  801880:	20c00a17 	ldw	r3,40(r4)
  801884:	e1bffc17 	ldw	r6,-16(fp)
  801888:	31001517 	ldw	r4,84(r6)
  80188c:	31401617 	ldw	r5,88(r6)
  801890:	200d883a 	mov	r6,r4
  801894:	280f883a 	mov	r7,r5
  801898:	1009883a 	mov	r4,r2
  80189c:	180b883a 	mov	r5,r3
  8018a0:	08047c40 	call	8047c4 <__adddf3>
  8018a4:	1009883a 	mov	r4,r2
  8018a8:	180b883a 	mov	r5,r3
  8018ac:	2005883a 	mov	r2,r4
  8018b0:	2807883a 	mov	r3,r5
  8018b4:	e13ffc17 	ldw	r4,-16(fp)
  8018b8:	20800915 	stw	r2,36(r4)
  8018bc:	20c00a15 	stw	r3,40(r4)
  }
  d->_g118 = d->_pg109_e1;
  8018c0:	e0bffc17 	ldw	r2,-16(fp)
  8018c4:	10c04083 	ldbu	r3,258(r2)
  8018c8:	e0bffc17 	ldw	r2,-16(fp)
  8018cc:	10c03245 	stb	r3,201(r2)
  d->_g109_e1 = d->_GO || d->_g118;
  8018d0:	e0bffc17 	ldw	r2,-16(fp)
  8018d4:	108033c3 	ldbu	r2,207(r2)
  8018d8:	10803fcc 	andi	r2,r2,255
  8018dc:	1080201c 	xori	r2,r2,128
  8018e0:	10bfe004 	addi	r2,r2,-128
  8018e4:	1000061e 	bne	r2,zero,801900 <logic+0x874>
  8018e8:	e0bffc17 	ldw	r2,-16(fp)
  8018ec:	10803243 	ldbu	r2,201(r2)
  8018f0:	10803fcc 	andi	r2,r2,255
  8018f4:	1080201c 	xori	r2,r2,128
  8018f8:	10bfe004 	addi	r2,r2,-128
  8018fc:	10000226 	beq	r2,zero,801908 <logic+0x87c>
  801900:	00800044 	movi	r2,1
  801904:	00000106 	br	80190c <logic+0x880>
  801908:	0005883a 	mov	r2,zero
  80190c:	1007883a 	mov	r3,r2
  801910:	e0bffc17 	ldw	r2,-16(fp)
  801914:	10c03e45 	stb	r3,249(r2)
  if (d->_g109_e1) {
  801918:	e0bffc17 	ldw	r2,-16(fp)
  80191c:	10803e43 	ldbu	r2,249(r2)
  801920:	10803fcc 	andi	r2,r2,255
  801924:	1080201c 	xori	r2,r2,128
  801928:	10bfe004 	addi	r2,r2,-128
  80192c:	10000426 	beq	r2,zero,801940 <logic+0x8b4>
    d->_pre_LRI = d->_reg_LRI;
  801930:	e0bffc17 	ldw	r2,-16(fp)
  801934:	10c01b83 	ldbu	r3,110(r2)
  801938:	e0bffc17 	ldw	r2,-16(fp)
  80193c:	10c01bc5 	stb	r3,111(r2)
  }
  d->_g119 = d->_pg13;
  801940:	e0bffc17 	ldw	r2,-16(fp)
  801944:	10c040c3 	ldbu	r3,259(r2)
  801948:	e0bffc17 	ldw	r2,-16(fp)
  80194c:	10c03285 	stb	r3,202(r2)
  d->_cg18 = (d->_region0_rAVI_AVI_clock >= d->AVI_CON && !d->URI) || !d->_pre_LRI;
  801950:	e0bffc17 	ldw	r2,-16(fp)
  801954:	14000917 	ldw	r16,36(r2)
  801958:	14400a17 	ldw	r17,40(r2)
  80195c:	e0bffc17 	ldw	r2,-16(fp)
  801960:	10800117 	ldw	r2,4(r2)
  801964:	1009883a 	mov	r4,r2
  801968:	0805b3c0 	call	805b3c <__floatsidf>
  80196c:	1009883a 	mov	r4,r2
  801970:	180b883a 	mov	r5,r3
  801974:	200d883a 	mov	r6,r4
  801978:	280f883a 	mov	r7,r5
  80197c:	8009883a 	mov	r4,r16
  801980:	880b883a 	mov	r5,r17
  801984:	08050700 	call	805070 <__gedf2>
  801988:	10000616 	blt	r2,zero,8019a4 <logic+0x918>
  80198c:	e0bffc17 	ldw	r2,-16(fp)
  801990:	10800843 	ldbu	r2,33(r2)
  801994:	10803fcc 	andi	r2,r2,255
  801998:	1080201c 	xori	r2,r2,128
  80199c:	10bfe004 	addi	r2,r2,-128
  8019a0:	10000626 	beq	r2,zero,8019bc <logic+0x930>
  8019a4:	e0bffc17 	ldw	r2,-16(fp)
  8019a8:	10801bc3 	ldbu	r2,111(r2)
  8019ac:	10803fcc 	andi	r2,r2,255
  8019b0:	1080201c 	xori	r2,r2,128
  8019b4:	10bfe004 	addi	r2,r2,-128
  8019b8:	1000021e 	bne	r2,zero,8019c4 <logic+0x938>
  8019bc:	00800044 	movi	r2,1
  8019c0:	00000106 	br	8019c8 <logic+0x93c>
  8019c4:	0005883a 	mov	r2,zero
  8019c8:	1007883a 	mov	r3,r2
  8019cc:	e0bffc17 	ldw	r2,-16(fp)
  8019d0:	10c03585 	stb	r3,214(r2)
  d->_g160 = d->_g119 && d->_cg18;
  8019d4:	e0bffc17 	ldw	r2,-16(fp)
  8019d8:	10803283 	ldbu	r2,202(r2)
  8019dc:	10803fcc 	andi	r2,r2,255
  8019e0:	1080201c 	xori	r2,r2,128
  8019e4:	10bfe004 	addi	r2,r2,-128
  8019e8:	10000826 	beq	r2,zero,801a0c <logic+0x980>
  8019ec:	e0bffc17 	ldw	r2,-16(fp)
  8019f0:	10803583 	ldbu	r2,214(r2)
  8019f4:	10803fcc 	andi	r2,r2,255
  8019f8:	1080201c 	xori	r2,r2,128
  8019fc:	10bfe004 	addi	r2,r2,-128
  801a00:	10000226 	beq	r2,zero,801a0c <logic+0x980>
  801a04:	00800044 	movi	r2,1
  801a08:	00000106 	br	801a10 <logic+0x984>
  801a0c:	0005883a 	mov	r2,zero
  801a10:	1007883a 	mov	r3,r2
  801a14:	e0bffc17 	ldw	r2,-16(fp)
  801a18:	10c03385 	stb	r3,206(r2)
  if (d->_g160) {
  801a1c:	e0bffc17 	ldw	r2,-16(fp)
  801a20:	10803383 	ldbu	r2,206(r2)
  801a24:	10803fcc 	andi	r2,r2,255
  801a28:	1080201c 	xori	r2,r2,128
  801a2c:	10bfe004 	addi	r2,r2,-128
  801a30:	10000326 	beq	r2,zero,801a40 <logic+0x9b4>
    d->_PaceMaker_local__Atrig = 1;
  801a34:	e0bffc17 	ldw	r2,-16(fp)
  801a38:	00c00044 	movi	r3,1
  801a3c:	10c01c05 	stb	r3,112(r2)
  }
  d->_g37 = d->_pg24;
  801a40:	e0bffc17 	ldw	r2,-16(fp)
  801a44:	10c04103 	ldbu	r3,260(r2)
  801a48:	e0bffc17 	ldw	r2,-16(fp)
  801a4c:	10c02385 	stb	r3,142(r2)
  d->_cg37 = d->_pre_AVI_event;
  801a50:	e0bffc17 	ldw	r2,-16(fp)
  801a54:	10c01b43 	ldbu	r3,109(r2)
  801a58:	e0bffc17 	ldw	r2,-16(fp)
  801a5c:	10c03645 	stb	r3,217(r2)
  d->_g38 = d->_g37 && d->_cg37;
  801a60:	e0bffc17 	ldw	r2,-16(fp)
  801a64:	10802383 	ldbu	r2,142(r2)
  801a68:	10803fcc 	andi	r2,r2,255
  801a6c:	1080201c 	xori	r2,r2,128
  801a70:	10bfe004 	addi	r2,r2,-128
  801a74:	10000826 	beq	r2,zero,801a98 <logic+0xa0c>
  801a78:	e0bffc17 	ldw	r2,-16(fp)
  801a7c:	10803643 	ldbu	r2,217(r2)
  801a80:	10803fcc 	andi	r2,r2,255
  801a84:	1080201c 	xori	r2,r2,128
  801a88:	10bfe004 	addi	r2,r2,-128
  801a8c:	10000226 	beq	r2,zero,801a98 <logic+0xa0c>
  801a90:	00800044 	movi	r2,1
  801a94:	00000106 	br	801a9c <logic+0xa10>
  801a98:	0005883a 	mov	r2,zero
  801a9c:	1007883a 	mov	r3,r2
  801aa0:	e0bffc17 	ldw	r2,-16(fp)
  801aa4:	10c023c5 	stb	r3,143(r2)
  if (d->_g38) {
  801aa8:	e0bffc17 	ldw	r2,-16(fp)
  801aac:	108023c3 	ldbu	r2,143(r2)
  801ab0:	10803fcc 	andi	r2,r2,255
  801ab4:	1080201c 	xori	r2,r2,128
  801ab8:	10bfe004 	addi	r2,r2,-128
  801abc:	10000326 	beq	r2,zero,801acc <logic+0xa40>
    d->VRP = 1;
  801ac0:	e0bffc17 	ldw	r2,-16(fp)
  801ac4:	00c00044 	movi	r3,1
  801ac8:	10c00785 	stb	r3,30(r2)
  }
  d->_g135 = d->_pg99;
  801acc:	e0bffc17 	ldw	r2,-16(fp)
  801ad0:	10c04143 	ldbu	r3,261(r2)
  801ad4:	e0bffc17 	ldw	r2,-16(fp)
  801ad8:	10c032c5 	stb	r3,203(r2)
  if (d->_g135) {
  801adc:	e0bffc17 	ldw	r2,-16(fp)
  801ae0:	108032c3 	ldbu	r2,203(r2)
  801ae4:	10803fcc 	andi	r2,r2,255
  801ae8:	1080201c 	xori	r2,r2,128
  801aec:	10bfe004 	addi	r2,r2,-128
  801af0:	10001226 	beq	r2,zero,801b3c <logic+0xab0>
    d->_region2_rVRP_VRP_clock += d->deltaT;
  801af4:	e13ffc17 	ldw	r4,-16(fp)
  801af8:	20800d17 	ldw	r2,52(r4)
  801afc:	20c00e17 	ldw	r3,56(r4)
  801b00:	e1bffc17 	ldw	r6,-16(fp)
  801b04:	31001517 	ldw	r4,84(r6)
  801b08:	31401617 	ldw	r5,88(r6)
  801b0c:	200d883a 	mov	r6,r4
  801b10:	280f883a 	mov	r7,r5
  801b14:	1009883a 	mov	r4,r2
  801b18:	180b883a 	mov	r5,r3
  801b1c:	08047c40 	call	8047c4 <__adddf3>
  801b20:	1009883a 	mov	r4,r2
  801b24:	180b883a 	mov	r5,r3
  801b28:	2005883a 	mov	r2,r4
  801b2c:	2807883a 	mov	r3,r5
  801b30:	e13ffc17 	ldw	r4,-16(fp)
  801b34:	20800d15 	stw	r2,52(r4)
  801b38:	20c00e15 	stw	r3,56(r4)
  }
  d->_g50 = d->_pg41;
  801b3c:	e0bffc17 	ldw	r2,-16(fp)
  801b40:	10c04183 	ldbu	r3,262(r2)
  801b44:	e0bffc17 	ldw	r2,-16(fp)
  801b48:	10c02605 	stb	r3,152(r2)
  d->_cg50 = d->_region2_rVRP_VRP_clock >= d->VRP_CON;
  801b4c:	e0bffc17 	ldw	r2,-16(fp)
  801b50:	14000d17 	ldw	r16,52(r2)
  801b54:	14400e17 	ldw	r17,56(r2)
  801b58:	e0bffc17 	ldw	r2,-16(fp)
  801b5c:	10800417 	ldw	r2,16(r2)
  801b60:	1009883a 	mov	r4,r2
  801b64:	0805b3c0 	call	805b3c <__floatsidf>
  801b68:	1009883a 	mov	r4,r2
  801b6c:	180b883a 	mov	r5,r3
  801b70:	04800044 	movi	r18,1
  801b74:	200d883a 	mov	r6,r4
  801b78:	280f883a 	mov	r7,r5
  801b7c:	8009883a 	mov	r4,r16
  801b80:	880b883a 	mov	r5,r17
  801b84:	08050700 	call	805070 <__gedf2>
  801b88:	1000010e 	bge	r2,zero,801b90 <logic+0xb04>
  801b8c:	0025883a 	mov	r18,zero
  801b90:	9007883a 	mov	r3,r18
  801b94:	e0bffc17 	ldw	r2,-16(fp)
  801b98:	10c03745 	stb	r3,221(r2)
  d->_g51 = d->_g50 && d->_cg50;
  801b9c:	e0bffc17 	ldw	r2,-16(fp)
  801ba0:	10802603 	ldbu	r2,152(r2)
  801ba4:	10803fcc 	andi	r2,r2,255
  801ba8:	1080201c 	xori	r2,r2,128
  801bac:	10bfe004 	addi	r2,r2,-128
  801bb0:	10000826 	beq	r2,zero,801bd4 <logic+0xb48>
  801bb4:	e0bffc17 	ldw	r2,-16(fp)
  801bb8:	10803743 	ldbu	r2,221(r2)
  801bbc:	10803fcc 	andi	r2,r2,255
  801bc0:	1080201c 	xori	r2,r2,128
  801bc4:	10bfe004 	addi	r2,r2,-128
  801bc8:	10000226 	beq	r2,zero,801bd4 <logic+0xb48>
  801bcc:	00800044 	movi	r2,1
  801bd0:	00000106 	br	801bd8 <logic+0xb4c>
  801bd4:	0005883a 	mov	r2,zero
  801bd8:	1007883a 	mov	r3,r2
  801bdc:	e0bffc17 	ldw	r2,-16(fp)
  801be0:	10c02645 	stb	r3,153(r2)
  if (d->_g51) {
  801be4:	e0bffc17 	ldw	r2,-16(fp)
  801be8:	10802643 	ldbu	r2,153(r2)
  801bec:	10803fcc 	andi	r2,r2,255
  801bf0:	1080201c 	xori	r2,r2,128
  801bf4:	10bfe004 	addi	r2,r2,-128
  801bf8:	10000326 	beq	r2,zero,801c08 <logic+0xb7c>
    d->_PaceMaker_local__Atrig2 = 1;
  801bfc:	e0bffc17 	ldw	r2,-16(fp)
  801c00:	00c00044 	movi	r3,1
  801c04:	10c01c85 	stb	r3,114(r2)
  }
  if (d->_g38) {
  801c08:	e0bffc17 	ldw	r2,-16(fp)
  801c0c:	108023c3 	ldbu	r2,143(r2)
  801c10:	10803fcc 	andi	r2,r2,255
  801c14:	1080201c 	xori	r2,r2,128
  801c18:	10bfe004 	addi	r2,r2,-128
  801c1c:	10000526 	beq	r2,zero,801c34 <logic+0xba8>
    d->_region2_rVRP_VRP_clock = 0;
  801c20:	e0bffc17 	ldw	r2,-16(fp)
  801c24:	10000d15 	stw	zero,52(r2)
  801c28:	10000e15 	stw	zero,56(r2)
    d->_PaceMaker_local__Atrig2 = 0;
  801c2c:	e0bffc17 	ldw	r2,-16(fp)
  801c30:	10001c85 	stb	zero,114(r2)
  }
  d->_g44 = d->_pg43;
  801c34:	e0bffc17 	ldw	r2,-16(fp)
  801c38:	10c041c3 	ldbu	r3,263(r2)
  801c3c:	e0bffc17 	ldw	r2,-16(fp)
  801c40:	10c02505 	stb	r3,148(r2)
  d->_g47 = d->_pg46;
  801c44:	e0bffc17 	ldw	r2,-16(fp)
  801c48:	10c04203 	ldbu	r3,264(r2)
  801c4c:	e0bffc17 	ldw	r2,-16(fp)
  801c50:	10c025c5 	stb	r3,151(r2)
  d->_g44 = d->_g38 || d->_g44 || d->_g47;
  801c54:	e0bffc17 	ldw	r2,-16(fp)
  801c58:	108023c3 	ldbu	r2,143(r2)
  801c5c:	10803fcc 	andi	r2,r2,255
  801c60:	1080201c 	xori	r2,r2,128
  801c64:	10bfe004 	addi	r2,r2,-128
  801c68:	10000c1e 	bne	r2,zero,801c9c <logic+0xc10>
  801c6c:	e0bffc17 	ldw	r2,-16(fp)
  801c70:	10802503 	ldbu	r2,148(r2)
  801c74:	10803fcc 	andi	r2,r2,255
  801c78:	1080201c 	xori	r2,r2,128
  801c7c:	10bfe004 	addi	r2,r2,-128
  801c80:	1000061e 	bne	r2,zero,801c9c <logic+0xc10>
  801c84:	e0bffc17 	ldw	r2,-16(fp)
  801c88:	108025c3 	ldbu	r2,151(r2)
  801c8c:	10803fcc 	andi	r2,r2,255
  801c90:	1080201c 	xori	r2,r2,128
  801c94:	10bfe004 	addi	r2,r2,-128
  801c98:	10000226 	beq	r2,zero,801ca4 <logic+0xc18>
  801c9c:	00800044 	movi	r2,1
  801ca0:	00000106 	br	801ca8 <logic+0xc1c>
  801ca4:	0005883a 	mov	r2,zero
  801ca8:	1007883a 	mov	r3,r2
  801cac:	e0bffc17 	ldw	r2,-16(fp)
  801cb0:	10c02505 	stb	r3,148(r2)
  d->_cg40 = d->_region2_rVRP_VRP_clock < d->VRP_CON;
  801cb4:	e0bffc17 	ldw	r2,-16(fp)
  801cb8:	14000d17 	ldw	r16,52(r2)
  801cbc:	14400e17 	ldw	r17,56(r2)
  801cc0:	e0bffc17 	ldw	r2,-16(fp)
  801cc4:	10800417 	ldw	r2,16(r2)
  801cc8:	1009883a 	mov	r4,r2
  801ccc:	0805b3c0 	call	805b3c <__floatsidf>
  801cd0:	1009883a 	mov	r4,r2
  801cd4:	180b883a 	mov	r5,r3
  801cd8:	04800044 	movi	r18,1
  801cdc:	200d883a 	mov	r6,r4
  801ce0:	280f883a 	mov	r7,r5
  801ce4:	8009883a 	mov	r4,r16
  801ce8:	880b883a 	mov	r5,r17
  801cec:	080514c0 	call	80514c <__ledf2>
  801cf0:	10000116 	blt	r2,zero,801cf8 <logic+0xc6c>
  801cf4:	0025883a 	mov	r18,zero
  801cf8:	9007883a 	mov	r3,r18
  801cfc:	e0bffc17 	ldw	r2,-16(fp)
  801d00:	10c03685 	stb	r3,218(r2)
  d->_g47 = d->_g44 && !d->_cg40;
  801d04:	e0bffc17 	ldw	r2,-16(fp)
  801d08:	10802503 	ldbu	r2,148(r2)
  801d0c:	10803fcc 	andi	r2,r2,255
  801d10:	1080201c 	xori	r2,r2,128
  801d14:	10bfe004 	addi	r2,r2,-128
  801d18:	10000826 	beq	r2,zero,801d3c <logic+0xcb0>
  801d1c:	e0bffc17 	ldw	r2,-16(fp)
  801d20:	10803683 	ldbu	r2,218(r2)
  801d24:	10803fcc 	andi	r2,r2,255
  801d28:	1080201c 	xori	r2,r2,128
  801d2c:	10bfe004 	addi	r2,r2,-128
  801d30:	1000021e 	bne	r2,zero,801d3c <logic+0xcb0>
  801d34:	00800044 	movi	r2,1
  801d38:	00000106 	br	801d40 <logic+0xcb4>
  801d3c:	0005883a 	mov	r2,zero
  801d40:	1007883a 	mov	r3,r2
  801d44:	e0bffc17 	ldw	r2,-16(fp)
  801d48:	10c025c5 	stb	r3,151(r2)
  d->_cg45 = d->_PaceMaker_local__Atrig2;
  801d4c:	e0bffc17 	ldw	r2,-16(fp)
  801d50:	10c01c83 	ldbu	r3,114(r2)
  801d54:	e0bffc17 	ldw	r2,-16(fp)
  801d58:	10c03705 	stb	r3,220(r2)
  d->_g46 = d->_g47 && !d->_cg45;
  801d5c:	e0bffc17 	ldw	r2,-16(fp)
  801d60:	108025c3 	ldbu	r2,151(r2)
  801d64:	10803fcc 	andi	r2,r2,255
  801d68:	1080201c 	xori	r2,r2,128
  801d6c:	10bfe004 	addi	r2,r2,-128
  801d70:	10000826 	beq	r2,zero,801d94 <logic+0xd08>
  801d74:	e0bffc17 	ldw	r2,-16(fp)
  801d78:	10803703 	ldbu	r2,220(r2)
  801d7c:	10803fcc 	andi	r2,r2,255
  801d80:	1080201c 	xori	r2,r2,128
  801d84:	10bfe004 	addi	r2,r2,-128
  801d88:	1000021e 	bne	r2,zero,801d94 <logic+0xd08>
  801d8c:	00800044 	movi	r2,1
  801d90:	00000106 	br	801d98 <logic+0xd0c>
  801d94:	0005883a 	mov	r2,zero
  801d98:	1007883a 	mov	r3,r2
  801d9c:	e0bffc17 	ldw	r2,-16(fp)
  801da0:	10c02585 	stb	r3,150(r2)
  d->_g40 = d->_g44 && d->_cg40;
  801da4:	e0bffc17 	ldw	r2,-16(fp)
  801da8:	10802503 	ldbu	r2,148(r2)
  801dac:	10803fcc 	andi	r2,r2,255
  801db0:	1080201c 	xori	r2,r2,128
  801db4:	10bfe004 	addi	r2,r2,-128
  801db8:	10000826 	beq	r2,zero,801ddc <logic+0xd50>
  801dbc:	e0bffc17 	ldw	r2,-16(fp)
  801dc0:	10803683 	ldbu	r2,218(r2)
  801dc4:	10803fcc 	andi	r2,r2,255
  801dc8:	1080201c 	xori	r2,r2,128
  801dcc:	10bfe004 	addi	r2,r2,-128
  801dd0:	10000226 	beq	r2,zero,801ddc <logic+0xd50>
  801dd4:	00800044 	movi	r2,1
  801dd8:	00000106 	br	801de0 <logic+0xd54>
  801ddc:	0005883a 	mov	r2,zero
  801de0:	1007883a 	mov	r3,r2
  801de4:	e0bffc17 	ldw	r2,-16(fp)
  801de8:	10c02405 	stb	r3,144(r2)
  if (d->_g40) {
  801dec:	e0bffc17 	ldw	r2,-16(fp)
  801df0:	10802403 	ldbu	r2,144(r2)
  801df4:	10803fcc 	andi	r2,r2,255
  801df8:	1080201c 	xori	r2,r2,128
  801dfc:	10bfe004 	addi	r2,r2,-128
  801e00:	10003426 	beq	r2,zero,801ed4 <logic+0xe48>
    d->sleepT = (d->sleepT < (d->VRP_CON - d->_region2_rVRP_VRP_clock)) ? d->sleepT : (d->VRP_CON - d->_region2_rVRP_VRP_clock);
  801e04:	e0bffc17 	ldw	r2,-16(fp)
  801e08:	14001717 	ldw	r16,92(r2)
  801e0c:	14401817 	ldw	r17,96(r2)
  801e10:	e0bffc17 	ldw	r2,-16(fp)
  801e14:	10800417 	ldw	r2,16(r2)
  801e18:	1009883a 	mov	r4,r2
  801e1c:	0805b3c0 	call	805b3c <__floatsidf>
  801e20:	1011883a 	mov	r8,r2
  801e24:	1813883a 	mov	r9,r3
  801e28:	e13ffc17 	ldw	r4,-16(fp)
  801e2c:	20800d17 	ldw	r2,52(r4)
  801e30:	20c00e17 	ldw	r3,56(r4)
  801e34:	100d883a 	mov	r6,r2
  801e38:	180f883a 	mov	r7,r3
  801e3c:	4009883a 	mov	r4,r8
  801e40:	480b883a 	mov	r5,r9
  801e44:	08052400 	call	805240 <__subdf3>
  801e48:	1009883a 	mov	r4,r2
  801e4c:	180b883a 	mov	r5,r3
  801e50:	2005883a 	mov	r2,r4
  801e54:	2807883a 	mov	r3,r5
  801e58:	100d883a 	mov	r6,r2
  801e5c:	180f883a 	mov	r7,r3
  801e60:	8009883a 	mov	r4,r16
  801e64:	880b883a 	mov	r5,r17
  801e68:	080514c0 	call	80514c <__ledf2>
  801e6c:	1000040e 	bge	r2,zero,801e80 <logic+0xdf4>
  801e70:	e13ffc17 	ldw	r4,-16(fp)
  801e74:	20801717 	ldw	r2,92(r4)
  801e78:	20c01817 	ldw	r3,96(r4)
  801e7c:	00001206 	br	801ec8 <logic+0xe3c>
  801e80:	e0bffc17 	ldw	r2,-16(fp)
  801e84:	10800417 	ldw	r2,16(r2)
  801e88:	1009883a 	mov	r4,r2
  801e8c:	0805b3c0 	call	805b3c <__floatsidf>
  801e90:	1011883a 	mov	r8,r2
  801e94:	1813883a 	mov	r9,r3
  801e98:	e13ffc17 	ldw	r4,-16(fp)
  801e9c:	20800d17 	ldw	r2,52(r4)
  801ea0:	20c00e17 	ldw	r3,56(r4)
  801ea4:	100d883a 	mov	r6,r2
  801ea8:	180f883a 	mov	r7,r3
  801eac:	4009883a 	mov	r4,r8
  801eb0:	480b883a 	mov	r5,r9
  801eb4:	08052400 	call	805240 <__subdf3>
  801eb8:	1009883a 	mov	r4,r2
  801ebc:	180b883a 	mov	r5,r3
  801ec0:	2005883a 	mov	r2,r4
  801ec4:	2807883a 	mov	r3,r5
  801ec8:	e13ffc17 	ldw	r4,-16(fp)
  801ecc:	20801715 	stw	r2,92(r4)
  801ed0:	20c01815 	stw	r3,96(r4)
  }
  d->_cg41 = d->_PaceMaker_local__Atrig2;
  801ed4:	e0bffc17 	ldw	r2,-16(fp)
  801ed8:	10c01c83 	ldbu	r3,114(r2)
  801edc:	e0bffc17 	ldw	r2,-16(fp)
  801ee0:	10c036c5 	stb	r3,219(r2)
  d->_g43 = d->_g40 && !d->_cg41;
  801ee4:	e0bffc17 	ldw	r2,-16(fp)
  801ee8:	10802403 	ldbu	r2,144(r2)
  801eec:	10803fcc 	andi	r2,r2,255
  801ef0:	1080201c 	xori	r2,r2,128
  801ef4:	10bfe004 	addi	r2,r2,-128
  801ef8:	10000826 	beq	r2,zero,801f1c <logic+0xe90>
  801efc:	e0bffc17 	ldw	r2,-16(fp)
  801f00:	108036c3 	ldbu	r2,219(r2)
  801f04:	10803fcc 	andi	r2,r2,255
  801f08:	1080201c 	xori	r2,r2,128
  801f0c:	10bfe004 	addi	r2,r2,-128
  801f10:	1000021e 	bne	r2,zero,801f1c <logic+0xe90>
  801f14:	00800044 	movi	r2,1
  801f18:	00000106 	br	801f20 <logic+0xe94>
  801f1c:	0005883a 	mov	r2,zero
  801f20:	1007883a 	mov	r3,r2
  801f24:	e0bffc17 	ldw	r2,-16(fp)
  801f28:	10c024c5 	stb	r3,147(r2)
  d->_g42_e1 = !(d->_g46 || d->_g43);
  801f2c:	e0bffc17 	ldw	r2,-16(fp)
  801f30:	10802583 	ldbu	r2,150(r2)
  801f34:	10803fcc 	andi	r2,r2,255
  801f38:	1080201c 	xori	r2,r2,128
  801f3c:	10bfe004 	addi	r2,r2,-128
  801f40:	1000081e 	bne	r2,zero,801f64 <logic+0xed8>
  801f44:	e0bffc17 	ldw	r2,-16(fp)
  801f48:	108024c3 	ldbu	r2,147(r2)
  801f4c:	10803fcc 	andi	r2,r2,255
  801f50:	1080201c 	xori	r2,r2,128
  801f54:	10bfe004 	addi	r2,r2,-128
  801f58:	1000021e 	bne	r2,zero,801f64 <logic+0xed8>
  801f5c:	00800044 	movi	r2,1
  801f60:	00000106 	br	801f68 <logic+0xedc>
  801f64:	0005883a 	mov	r2,zero
  801f68:	1007883a 	mov	r3,r2
  801f6c:	e0bffc17 	ldw	r2,-16(fp)
  801f70:	10c03cc5 	stb	r3,243(r2)
  d->_g45 = (d->_g40 && d->_cg41) || (d->_g47 && d->_cg45);
  801f74:	e0bffc17 	ldw	r2,-16(fp)
  801f78:	10802403 	ldbu	r2,144(r2)
  801f7c:	10803fcc 	andi	r2,r2,255
  801f80:	1080201c 	xori	r2,r2,128
  801f84:	10bfe004 	addi	r2,r2,-128
  801f88:	10000626 	beq	r2,zero,801fa4 <logic+0xf18>
  801f8c:	e0bffc17 	ldw	r2,-16(fp)
  801f90:	108036c3 	ldbu	r2,219(r2)
  801f94:	10803fcc 	andi	r2,r2,255
  801f98:	1080201c 	xori	r2,r2,128
  801f9c:	10bfe004 	addi	r2,r2,-128
  801fa0:	10000c1e 	bne	r2,zero,801fd4 <logic+0xf48>
  801fa4:	e0bffc17 	ldw	r2,-16(fp)
  801fa8:	108025c3 	ldbu	r2,151(r2)
  801fac:	10803fcc 	andi	r2,r2,255
  801fb0:	1080201c 	xori	r2,r2,128
  801fb4:	10bfe004 	addi	r2,r2,-128
  801fb8:	10000826 	beq	r2,zero,801fdc <logic+0xf50>
  801fbc:	e0bffc17 	ldw	r2,-16(fp)
  801fc0:	10803703 	ldbu	r2,220(r2)
  801fc4:	10803fcc 	andi	r2,r2,255
  801fc8:	1080201c 	xori	r2,r2,128
  801fcc:	10bfe004 	addi	r2,r2,-128
  801fd0:	10000226 	beq	r2,zero,801fdc <logic+0xf50>
  801fd4:	00800044 	movi	r2,1
  801fd8:	00000106 	br	801fe0 <logic+0xf54>
  801fdc:	0005883a 	mov	r2,zero
  801fe0:	1007883a 	mov	r3,r2
  801fe4:	e0bffc17 	ldw	r2,-16(fp)
  801fe8:	10c02545 	stb	r3,149(r2)
  d->_g41 = d->_g38 || (d->_g50 && !d->_cg50);
  801fec:	e0bffc17 	ldw	r2,-16(fp)
  801ff0:	108023c3 	ldbu	r2,143(r2)
  801ff4:	10803fcc 	andi	r2,r2,255
  801ff8:	1080201c 	xori	r2,r2,128
  801ffc:	10bfe004 	addi	r2,r2,-128
  802000:	10000c1e 	bne	r2,zero,802034 <logic+0xfa8>
  802004:	e0bffc17 	ldw	r2,-16(fp)
  802008:	10802603 	ldbu	r2,152(r2)
  80200c:	10803fcc 	andi	r2,r2,255
  802010:	1080201c 	xori	r2,r2,128
  802014:	10bfe004 	addi	r2,r2,-128
  802018:	10000826 	beq	r2,zero,80203c <logic+0xfb0>
  80201c:	e0bffc17 	ldw	r2,-16(fp)
  802020:	10803743 	ldbu	r2,221(r2)
  802024:	10803fcc 	andi	r2,r2,255
  802028:	1080201c 	xori	r2,r2,128
  80202c:	10bfe004 	addi	r2,r2,-128
  802030:	1000021e 	bne	r2,zero,80203c <logic+0xfb0>
  802034:	00800044 	movi	r2,1
  802038:	00000106 	br	802040 <logic+0xfb4>
  80203c:	0005883a 	mov	r2,zero
  802040:	1007883a 	mov	r3,r2
  802044:	e0bffc17 	ldw	r2,-16(fp)
  802048:	10c02445 	stb	r3,145(r2)
  d->_g38 = !d->_g41;
  80204c:	e0bffc17 	ldw	r2,-16(fp)
  802050:	10802443 	ldbu	r2,145(r2)
  802054:	10803fcc 	andi	r2,r2,255
  802058:	1080201c 	xori	r2,r2,128
  80205c:	10bfe004 	addi	r2,r2,-128
  802060:	1005003a 	cmpeq	r2,r2,zero
  802064:	1007883a 	mov	r3,r2
  802068:	e0bffc17 	ldw	r2,-16(fp)
  80206c:	10c023c5 	stb	r3,143(r2)
  d->_g50 = (d->_g42_e1 || d->_g45) && (d->_g38 || d->_g51) && (d->_g45 || d->_g51);
  802070:	e0bffc17 	ldw	r2,-16(fp)
  802074:	10803cc3 	ldbu	r2,243(r2)
  802078:	10803fcc 	andi	r2,r2,255
  80207c:	1080201c 	xori	r2,r2,128
  802080:	10bfe004 	addi	r2,r2,-128
  802084:	1000061e 	bne	r2,zero,8020a0 <logic+0x1014>
  802088:	e0bffc17 	ldw	r2,-16(fp)
  80208c:	10802543 	ldbu	r2,149(r2)
  802090:	10803fcc 	andi	r2,r2,255
  802094:	1080201c 	xori	r2,r2,128
  802098:	10bfe004 	addi	r2,r2,-128
  80209c:	10001a26 	beq	r2,zero,802108 <logic+0x107c>
  8020a0:	e0bffc17 	ldw	r2,-16(fp)
  8020a4:	108023c3 	ldbu	r2,143(r2)
  8020a8:	10803fcc 	andi	r2,r2,255
  8020ac:	1080201c 	xori	r2,r2,128
  8020b0:	10bfe004 	addi	r2,r2,-128
  8020b4:	1000061e 	bne	r2,zero,8020d0 <logic+0x1044>
  8020b8:	e0bffc17 	ldw	r2,-16(fp)
  8020bc:	10802643 	ldbu	r2,153(r2)
  8020c0:	10803fcc 	andi	r2,r2,255
  8020c4:	1080201c 	xori	r2,r2,128
  8020c8:	10bfe004 	addi	r2,r2,-128
  8020cc:	10000e26 	beq	r2,zero,802108 <logic+0x107c>
  8020d0:	e0bffc17 	ldw	r2,-16(fp)
  8020d4:	10802543 	ldbu	r2,149(r2)
  8020d8:	10803fcc 	andi	r2,r2,255
  8020dc:	1080201c 	xori	r2,r2,128
  8020e0:	10bfe004 	addi	r2,r2,-128
  8020e4:	1000061e 	bne	r2,zero,802100 <logic+0x1074>
  8020e8:	e0bffc17 	ldw	r2,-16(fp)
  8020ec:	10802643 	ldbu	r2,153(r2)
  8020f0:	10803fcc 	andi	r2,r2,255
  8020f4:	1080201c 	xori	r2,r2,128
  8020f8:	10bfe004 	addi	r2,r2,-128
  8020fc:	10000226 	beq	r2,zero,802108 <logic+0x107c>
  802100:	00800044 	movi	r2,1
  802104:	00000106 	br	80210c <logic+0x1080>
  802108:	0005883a 	mov	r2,zero
  80210c:	1007883a 	mov	r3,r2
  802110:	e0bffc17 	ldw	r2,-16(fp)
  802114:	10c02605 	stb	r3,152(r2)
  d->_g51 = d->_GO || d->_g50;
  802118:	e0bffc17 	ldw	r2,-16(fp)
  80211c:	108033c3 	ldbu	r2,207(r2)
  802120:	10803fcc 	andi	r2,r2,255
  802124:	1080201c 	xori	r2,r2,128
  802128:	10bfe004 	addi	r2,r2,-128
  80212c:	1000061e 	bne	r2,zero,802148 <logic+0x10bc>
  802130:	e0bffc17 	ldw	r2,-16(fp)
  802134:	10802603 	ldbu	r2,152(r2)
  802138:	10803fcc 	andi	r2,r2,255
  80213c:	1080201c 	xori	r2,r2,128
  802140:	10bfe004 	addi	r2,r2,-128
  802144:	10000226 	beq	r2,zero,802150 <logic+0x10c4>
  802148:	00800044 	movi	r2,1
  80214c:	00000106 	br	802154 <logic+0x10c8>
  802150:	0005883a 	mov	r2,zero
  802154:	1007883a 	mov	r3,r2
  802158:	e0bffc17 	ldw	r2,-16(fp)
  80215c:	10c02645 	stb	r3,153(r2)
  if (d->_g51) {
  802160:	e0bffc17 	ldw	r2,-16(fp)
  802164:	10802643 	ldbu	r2,153(r2)
  802168:	10803fcc 	andi	r2,r2,255
  80216c:	1080201c 	xori	r2,r2,128
  802170:	10bfe004 	addi	r2,r2,-128
  802174:	10000226 	beq	r2,zero,802180 <logic+0x10f4>
    d->VRP = 0;
  802178:	e0bffc17 	ldw	r2,-16(fp)
  80217c:	10000785 	stb	zero,30(r2)
  }
  d->_g42 = d->_g119 && !d->_cg18;
  802180:	e0bffc17 	ldw	r2,-16(fp)
  802184:	10803283 	ldbu	r2,202(r2)
  802188:	10803fcc 	andi	r2,r2,255
  80218c:	1080201c 	xori	r2,r2,128
  802190:	10bfe004 	addi	r2,r2,-128
  802194:	10000826 	beq	r2,zero,8021b8 <logic+0x112c>
  802198:	e0bffc17 	ldw	r2,-16(fp)
  80219c:	10803583 	ldbu	r2,214(r2)
  8021a0:	10803fcc 	andi	r2,r2,255
  8021a4:	1080201c 	xori	r2,r2,128
  8021a8:	10bfe004 	addi	r2,r2,-128
  8021ac:	1000021e 	bne	r2,zero,8021b8 <logic+0x112c>
  8021b0:	00800044 	movi	r2,1
  8021b4:	00000106 	br	8021bc <logic+0x1130>
  8021b8:	0005883a 	mov	r2,zero
  8021bc:	1007883a 	mov	r3,r2
  8021c0:	e0bffc17 	ldw	r2,-16(fp)
  8021c4:	10c02485 	stb	r3,146(r2)
  d->_cg21 = d->VS && !d->VRP;
  8021c8:	e0bffc17 	ldw	r2,-16(fp)
  8021cc:	10800043 	ldbu	r2,1(r2)
  8021d0:	10803fcc 	andi	r2,r2,255
  8021d4:	1080201c 	xori	r2,r2,128
  8021d8:	10bfe004 	addi	r2,r2,-128
  8021dc:	10000826 	beq	r2,zero,802200 <logic+0x1174>
  8021e0:	e0bffc17 	ldw	r2,-16(fp)
  8021e4:	10800783 	ldbu	r2,30(r2)
  8021e8:	10803fcc 	andi	r2,r2,255
  8021ec:	1080201c 	xori	r2,r2,128
  8021f0:	10bfe004 	addi	r2,r2,-128
  8021f4:	1000021e 	bne	r2,zero,802200 <logic+0x1174>
  8021f8:	00800044 	movi	r2,1
  8021fc:	00000106 	br	802204 <logic+0x1178>
  802200:	0005883a 	mov	r2,zero
  802204:	1007883a 	mov	r3,r2
  802208:	e0bffc17 	ldw	r2,-16(fp)
  80220c:	10c03545 	stb	r3,213(r2)
  d->_g51_e2 = d->_g42 && d->_cg21;
  802210:	e0bffc17 	ldw	r2,-16(fp)
  802214:	10802483 	ldbu	r2,146(r2)
  802218:	10803fcc 	andi	r2,r2,255
  80221c:	1080201c 	xori	r2,r2,128
  802220:	10bfe004 	addi	r2,r2,-128
  802224:	10000826 	beq	r2,zero,802248 <logic+0x11bc>
  802228:	e0bffc17 	ldw	r2,-16(fp)
  80222c:	10803543 	ldbu	r2,213(r2)
  802230:	10803fcc 	andi	r2,r2,255
  802234:	1080201c 	xori	r2,r2,128
  802238:	10bfe004 	addi	r2,r2,-128
  80223c:	10000226 	beq	r2,zero,802248 <logic+0x11bc>
  802240:	00800044 	movi	r2,1
  802244:	00000106 	br	80224c <logic+0x11c0>
  802248:	0005883a 	mov	r2,zero
  80224c:	1007883a 	mov	r3,r2
  802250:	e0bffc17 	ldw	r2,-16(fp)
  802254:	10c03d05 	stb	r3,244(r2)
  if (d->_g51_e2) {
  802258:	e0bffc17 	ldw	r2,-16(fp)
  80225c:	10803d03 	ldbu	r2,244(r2)
  802260:	10803fcc 	andi	r2,r2,255
  802264:	1080201c 	xori	r2,r2,128
  802268:	10bfe004 	addi	r2,r2,-128
  80226c:	10000326 	beq	r2,zero,80227c <logic+0x11f0>
    d->_PaceMaker_local__Atrig1 = 1;
  802270:	e0bffc17 	ldw	r2,-16(fp)
  802274:	00c00044 	movi	r3,1
  802278:	10c01c45 	stb	r3,113(r2)
  }
  d->_g42_e1 = d->_pg10;
  80227c:	e0bffc17 	ldw	r2,-16(fp)
  802280:	10c04243 	ldbu	r3,265(r2)
  802284:	e0bffc17 	ldw	r2,-16(fp)
  802288:	10c03cc5 	stb	r3,243(r2)
  d->_cg29 = d->_pre_AVI_event;
  80228c:	e0bffc17 	ldw	r2,-16(fp)
  802290:	10c01b43 	ldbu	r3,109(r2)
  802294:	e0bffc17 	ldw	r2,-16(fp)
  802298:	10c03605 	stb	r3,216(r2)
  d->_g52 = d->_g42_e1 && d->_cg29;
  80229c:	e0bffc17 	ldw	r2,-16(fp)
  8022a0:	10803cc3 	ldbu	r2,243(r2)
  8022a4:	10803fcc 	andi	r2,r2,255
  8022a8:	1080201c 	xori	r2,r2,128
  8022ac:	10bfe004 	addi	r2,r2,-128
  8022b0:	10000826 	beq	r2,zero,8022d4 <logic+0x1248>
  8022b4:	e0bffc17 	ldw	r2,-16(fp)
  8022b8:	10803603 	ldbu	r2,216(r2)
  8022bc:	10803fcc 	andi	r2,r2,255
  8022c0:	1080201c 	xori	r2,r2,128
  8022c4:	10bfe004 	addi	r2,r2,-128
  8022c8:	10000226 	beq	r2,zero,8022d4 <logic+0x1248>
  8022cc:	00800044 	movi	r2,1
  8022d0:	00000106 	br	8022d8 <logic+0x124c>
  8022d4:	0005883a 	mov	r2,zero
  8022d8:	1007883a 	mov	r3,r2
  8022dc:	e0bffc17 	ldw	r2,-16(fp)
  8022e0:	10c02685 	stb	r3,154(r2)
  if (d->_g52) {
  8022e4:	e0bffc17 	ldw	r2,-16(fp)
  8022e8:	10802683 	ldbu	r2,154(r2)
  8022ec:	10803fcc 	andi	r2,r2,255
  8022f0:	1080201c 	xori	r2,r2,128
  8022f4:	10bfe004 	addi	r2,r2,-128
  8022f8:	10000326 	beq	r2,zero,802308 <logic+0x127c>
    d->PVARP = 1;
  8022fc:	e0bffc17 	ldw	r2,-16(fp)
  802300:	00c00044 	movi	r3,1
  802304:	10c00745 	stb	r3,29(r2)
  }
  d->_g18 = d->_pg23;
  802308:	e0bffc17 	ldw	r2,-16(fp)
  80230c:	10c04283 	ldbu	r3,266(r2)
  802310:	e0bffc17 	ldw	r2,-16(fp)
  802314:	10c02085 	stb	r3,130(r2)
  d->_cg32 = d->PVARP >= d->PVARP_CON;
  802318:	e0bffc17 	ldw	r2,-16(fp)
  80231c:	10800743 	ldbu	r2,29(r2)
  802320:	10c03fcc 	andi	r3,r2,255
  802324:	18c0201c 	xori	r3,r3,128
  802328:	18ffe004 	addi	r3,r3,-128
  80232c:	e0bffc17 	ldw	r2,-16(fp)
  802330:	10800317 	ldw	r2,12(r2)
  802334:	1884403a 	cmpge	r2,r3,r2
  802338:	1007883a 	mov	r3,r2
  80233c:	e0bffc17 	ldw	r2,-16(fp)
  802340:	10c035c5 	stb	r3,215(r2)
  d->_g27 = d->_GO || (d->_g18 && d->_cg32);
  802344:	e0bffc17 	ldw	r2,-16(fp)
  802348:	108033c3 	ldbu	r2,207(r2)
  80234c:	10803fcc 	andi	r2,r2,255
  802350:	1080201c 	xori	r2,r2,128
  802354:	10bfe004 	addi	r2,r2,-128
  802358:	10000c1e 	bne	r2,zero,80238c <logic+0x1300>
  80235c:	e0bffc17 	ldw	r2,-16(fp)
  802360:	10802083 	ldbu	r2,130(r2)
  802364:	10803fcc 	andi	r2,r2,255
  802368:	1080201c 	xori	r2,r2,128
  80236c:	10bfe004 	addi	r2,r2,-128
  802370:	10000826 	beq	r2,zero,802394 <logic+0x1308>
  802374:	e0bffc17 	ldw	r2,-16(fp)
  802378:	108035c3 	ldbu	r2,215(r2)
  80237c:	10803fcc 	andi	r2,r2,255
  802380:	1080201c 	xori	r2,r2,128
  802384:	10bfe004 	addi	r2,r2,-128
  802388:	10000226 	beq	r2,zero,802394 <logic+0x1308>
  80238c:	00800044 	movi	r2,1
  802390:	00000106 	br	802398 <logic+0x130c>
  802394:	0005883a 	mov	r2,zero
  802398:	1007883a 	mov	r3,r2
  80239c:	e0bffc17 	ldw	r2,-16(fp)
  8023a0:	10c02245 	stb	r3,137(r2)
  if (d->_g27) {
  8023a4:	e0bffc17 	ldw	r2,-16(fp)
  8023a8:	10802243 	ldbu	r2,137(r2)
  8023ac:	10803fcc 	andi	r2,r2,255
  8023b0:	1080201c 	xori	r2,r2,128
  8023b4:	10bfe004 	addi	r2,r2,-128
  8023b8:	10000226 	beq	r2,zero,8023c4 <logic+0x1338>
    d->PVARP = 0;
  8023bc:	e0bffc17 	ldw	r2,-16(fp)
  8023c0:	10000745 	stb	zero,29(r2)
  }
  d->_g139 = d->_pg81;
  8023c4:	e0bffc17 	ldw	r2,-16(fp)
  8023c8:	10c042c3 	ldbu	r3,267(r2)
  8023cc:	e0bffc17 	ldw	r2,-16(fp)
  8023d0:	10c03305 	stb	r3,204(r2)
  if (d->_g139) {
  8023d4:	e0bffc17 	ldw	r2,-16(fp)
  8023d8:	10803303 	ldbu	r2,204(r2)
  8023dc:	10803fcc 	andi	r2,r2,255
  8023e0:	1080201c 	xori	r2,r2,128
  8023e4:	10bfe004 	addi	r2,r2,-128
  8023e8:	10001226 	beq	r2,zero,802434 <logic+0x13a8>
    d->_region3_rAEI_AEI_clock += d->deltaT;
  8023ec:	e13ffc17 	ldw	r4,-16(fp)
  8023f0:	20800f17 	ldw	r2,60(r4)
  8023f4:	20c01017 	ldw	r3,64(r4)
  8023f8:	e1bffc17 	ldw	r6,-16(fp)
  8023fc:	31001517 	ldw	r4,84(r6)
  802400:	31401617 	ldw	r5,88(r6)
  802404:	200d883a 	mov	r6,r4
  802408:	280f883a 	mov	r7,r5
  80240c:	1009883a 	mov	r4,r2
  802410:	180b883a 	mov	r5,r3
  802414:	08047c40 	call	8047c4 <__adddf3>
  802418:	1009883a 	mov	r4,r2
  80241c:	180b883a 	mov	r5,r3
  802420:	2005883a 	mov	r2,r4
  802424:	2807883a 	mov	r3,r5
  802428:	e13ffc17 	ldw	r4,-16(fp)
  80242c:	20800f15 	stw	r2,60(r4)
  802430:	20c01015 	stw	r3,64(r4)
  }
  d->_g70 = d->_pg61;
  802434:	e0bffc17 	ldw	r2,-16(fp)
  802438:	10c04303 	ldbu	r3,268(r2)
  80243c:	e0bffc17 	ldw	r2,-16(fp)
  802440:	10c02985 	stb	r3,166(r2)
  d->_cg70 = d->_region3_rAEI_AEI_clock >= d->AEI_CON;
  802444:	e0bffc17 	ldw	r2,-16(fp)
  802448:	14000f17 	ldw	r16,60(r2)
  80244c:	14401017 	ldw	r17,64(r2)
  802450:	e0bffc17 	ldw	r2,-16(fp)
  802454:	10800217 	ldw	r2,8(r2)
  802458:	1009883a 	mov	r4,r2
  80245c:	0805b3c0 	call	805b3c <__floatsidf>
  802460:	1009883a 	mov	r4,r2
  802464:	180b883a 	mov	r5,r3
  802468:	04800044 	movi	r18,1
  80246c:	200d883a 	mov	r6,r4
  802470:	280f883a 	mov	r7,r5
  802474:	8009883a 	mov	r4,r16
  802478:	880b883a 	mov	r5,r17
  80247c:	08050700 	call	805070 <__gedf2>
  802480:	1000010e 	bge	r2,zero,802488 <logic+0x13fc>
  802484:	0025883a 	mov	r18,zero
  802488:	9007883a 	mov	r3,r18
  80248c:	e0bffc17 	ldw	r2,-16(fp)
  802490:	10c03905 	stb	r3,228(r2)
  d->_g71 = d->_g70 && d->_cg70;
  802494:	e0bffc17 	ldw	r2,-16(fp)
  802498:	10802983 	ldbu	r2,166(r2)
  80249c:	10803fcc 	andi	r2,r2,255
  8024a0:	1080201c 	xori	r2,r2,128
  8024a4:	10bfe004 	addi	r2,r2,-128
  8024a8:	10000826 	beq	r2,zero,8024cc <logic+0x1440>
  8024ac:	e0bffc17 	ldw	r2,-16(fp)
  8024b0:	10803903 	ldbu	r2,228(r2)
  8024b4:	10803fcc 	andi	r2,r2,255
  8024b8:	1080201c 	xori	r2,r2,128
  8024bc:	10bfe004 	addi	r2,r2,-128
  8024c0:	10000226 	beq	r2,zero,8024cc <logic+0x1440>
  8024c4:	00800044 	movi	r2,1
  8024c8:	00000106 	br	8024d0 <logic+0x1444>
  8024cc:	0005883a 	mov	r2,zero
  8024d0:	1007883a 	mov	r3,r2
  8024d4:	e0bffc17 	ldw	r2,-16(fp)
  8024d8:	10c029c5 	stb	r3,167(r2)
  if (d->_g71) {
  8024dc:	e0bffc17 	ldw	r2,-16(fp)
  8024e0:	108029c3 	ldbu	r2,167(r2)
  8024e4:	10803fcc 	andi	r2,r2,255
  8024e8:	1080201c 	xori	r2,r2,128
  8024ec:	10bfe004 	addi	r2,r2,-128
  8024f0:	10000326 	beq	r2,zero,802500 <logic+0x1474>
    d->_PaceMaker_local__Atrig3 = 1;
  8024f4:	e0bffc17 	ldw	r2,-16(fp)
  8024f8:	00c00044 	movi	r3,1
  8024fc:	10c01cc5 	stb	r3,115(r2)
  }
  d->_g70 = d->_g70 && !d->_cg70;
  802500:	e0bffc17 	ldw	r2,-16(fp)
  802504:	10802983 	ldbu	r2,166(r2)
  802508:	10803fcc 	andi	r2,r2,255
  80250c:	1080201c 	xori	r2,r2,128
  802510:	10bfe004 	addi	r2,r2,-128
  802514:	10000826 	beq	r2,zero,802538 <logic+0x14ac>
  802518:	e0bffc17 	ldw	r2,-16(fp)
  80251c:	10803903 	ldbu	r2,228(r2)
  802520:	10803fcc 	andi	r2,r2,255
  802524:	1080201c 	xori	r2,r2,128
  802528:	10bfe004 	addi	r2,r2,-128
  80252c:	1000021e 	bne	r2,zero,802538 <logic+0x14ac>
  802530:	00800044 	movi	r2,1
  802534:	00000106 	br	80253c <logic+0x14b0>
  802538:	0005883a 	mov	r2,zero
  80253c:	1007883a 	mov	r3,r2
  802540:	e0bffc17 	ldw	r2,-16(fp)
  802544:	10c02985 	stb	r3,166(r2)
  d->_g74 = d->_g70 && d->AS;
  802548:	e0bffc17 	ldw	r2,-16(fp)
  80254c:	10802983 	ldbu	r2,166(r2)
  802550:	10803fcc 	andi	r2,r2,255
  802554:	1080201c 	xori	r2,r2,128
  802558:	10bfe004 	addi	r2,r2,-128
  80255c:	10000826 	beq	r2,zero,802580 <logic+0x14f4>
  802560:	e0bffc17 	ldw	r2,-16(fp)
  802564:	10800003 	ldbu	r2,0(r2)
  802568:	10803fcc 	andi	r2,r2,255
  80256c:	1080201c 	xori	r2,r2,128
  802570:	10bfe004 	addi	r2,r2,-128
  802574:	10000226 	beq	r2,zero,802580 <logic+0x14f4>
  802578:	00800044 	movi	r2,1
  80257c:	00000106 	br	802584 <logic+0x14f8>
  802580:	0005883a 	mov	r2,zero
  802584:	1007883a 	mov	r3,r2
  802588:	e0bffc17 	ldw	r2,-16(fp)
  80258c:	10c02a85 	stb	r3,170(r2)
  if (d->_g74) {
  802590:	e0bffc17 	ldw	r2,-16(fp)
  802594:	10802a83 	ldbu	r2,170(r2)
  802598:	10803fcc 	andi	r2,r2,255
  80259c:	1080201c 	xori	r2,r2,128
  8025a0:	10bfe004 	addi	r2,r2,-128
  8025a4:	10000326 	beq	r2,zero,8025b4 <logic+0x1528>
    d->_PaceMaker_local__Atrig4 = 1;
  8025a8:	e0bffc17 	ldw	r2,-16(fp)
  8025ac:	00c00044 	movi	r3,1
  8025b0:	10c01d05 	stb	r3,116(r2)
  }
  d->_g57 = d->_pg27;
  8025b4:	e0bffc17 	ldw	r2,-16(fp)
  8025b8:	10c04343 	ldbu	r3,269(r2)
  8025bc:	e0bffc17 	ldw	r2,-16(fp)
  8025c0:	10c02705 	stb	r3,156(r2)
  d->_cg57 = d->_pre_AVI_event;
  8025c4:	e0bffc17 	ldw	r2,-16(fp)
  8025c8:	10c01b43 	ldbu	r3,109(r2)
  8025cc:	e0bffc17 	ldw	r2,-16(fp)
  8025d0:	10c037c5 	stb	r3,223(r2)
  d->_g58 = d->_g57 && d->_cg57;
  8025d4:	e0bffc17 	ldw	r2,-16(fp)
  8025d8:	10802703 	ldbu	r2,156(r2)
  8025dc:	10803fcc 	andi	r2,r2,255
  8025e0:	1080201c 	xori	r2,r2,128
  8025e4:	10bfe004 	addi	r2,r2,-128
  8025e8:	10000826 	beq	r2,zero,80260c <logic+0x1580>
  8025ec:	e0bffc17 	ldw	r2,-16(fp)
  8025f0:	108037c3 	ldbu	r2,223(r2)
  8025f4:	10803fcc 	andi	r2,r2,255
  8025f8:	1080201c 	xori	r2,r2,128
  8025fc:	10bfe004 	addi	r2,r2,-128
  802600:	10000226 	beq	r2,zero,80260c <logic+0x1580>
  802604:	00800044 	movi	r2,1
  802608:	00000106 	br	802610 <logic+0x1584>
  80260c:	0005883a 	mov	r2,zero
  802610:	1007883a 	mov	r3,r2
  802614:	e0bffc17 	ldw	r2,-16(fp)
  802618:	10c02745 	stb	r3,157(r2)
  if (d->_g58) {
  80261c:	e0bffc17 	ldw	r2,-16(fp)
  802620:	10802743 	ldbu	r2,157(r2)
  802624:	10803fcc 	andi	r2,r2,255
  802628:	1080201c 	xori	r2,r2,128
  80262c:	10bfe004 	addi	r2,r2,-128
  802630:	10000a26 	beq	r2,zero,80265c <logic+0x15d0>
    d->AEI = 1;
  802634:	e0bffc17 	ldw	r2,-16(fp)
  802638:	00c00044 	movi	r3,1
  80263c:	10c007c5 	stb	r3,31(r2)
    d->_region3_rAEI_AEI_clock = 0;
  802640:	e0bffc17 	ldw	r2,-16(fp)
  802644:	10000f15 	stw	zero,60(r2)
  802648:	10001015 	stw	zero,64(r2)
    d->_PaceMaker_local__Atrig3 = 0;
  80264c:	e0bffc17 	ldw	r2,-16(fp)
  802650:	10001cc5 	stb	zero,115(r2)
    d->_PaceMaker_local__Atrig4 = 0;
  802654:	e0bffc17 	ldw	r2,-16(fp)
  802658:	10001d05 	stb	zero,116(r2)
  }
  d->_g64 = d->_pg63;
  80265c:	e0bffc17 	ldw	r2,-16(fp)
  802660:	10c04383 	ldbu	r3,270(r2)
  802664:	e0bffc17 	ldw	r2,-16(fp)
  802668:	10c02885 	stb	r3,162(r2)
  d->_g67 = d->_pg66;
  80266c:	e0bffc17 	ldw	r2,-16(fp)
  802670:	10c043c3 	ldbu	r3,271(r2)
  802674:	e0bffc17 	ldw	r2,-16(fp)
  802678:	10c02945 	stb	r3,165(r2)
  d->_g67 = d->_g58 || d->_g64 || d->_g67;
  80267c:	e0bffc17 	ldw	r2,-16(fp)
  802680:	10802743 	ldbu	r2,157(r2)
  802684:	10803fcc 	andi	r2,r2,255
  802688:	1080201c 	xori	r2,r2,128
  80268c:	10bfe004 	addi	r2,r2,-128
  802690:	10000c1e 	bne	r2,zero,8026c4 <logic+0x1638>
  802694:	e0bffc17 	ldw	r2,-16(fp)
  802698:	10802883 	ldbu	r2,162(r2)
  80269c:	10803fcc 	andi	r2,r2,255
  8026a0:	1080201c 	xori	r2,r2,128
  8026a4:	10bfe004 	addi	r2,r2,-128
  8026a8:	1000061e 	bne	r2,zero,8026c4 <logic+0x1638>
  8026ac:	e0bffc17 	ldw	r2,-16(fp)
  8026b0:	10802943 	ldbu	r2,165(r2)
  8026b4:	10803fcc 	andi	r2,r2,255
  8026b8:	1080201c 	xori	r2,r2,128
  8026bc:	10bfe004 	addi	r2,r2,-128
  8026c0:	10000226 	beq	r2,zero,8026cc <logic+0x1640>
  8026c4:	00800044 	movi	r2,1
  8026c8:	00000106 	br	8026d0 <logic+0x1644>
  8026cc:	0005883a 	mov	r2,zero
  8026d0:	1007883a 	mov	r3,r2
  8026d4:	e0bffc17 	ldw	r2,-16(fp)
  8026d8:	10c02945 	stb	r3,165(r2)
  d->_cg60 = d->_region3_rAEI_AEI_clock < d->AEI_CON;
  8026dc:	e0bffc17 	ldw	r2,-16(fp)
  8026e0:	14000f17 	ldw	r16,60(r2)
  8026e4:	14401017 	ldw	r17,64(r2)
  8026e8:	e0bffc17 	ldw	r2,-16(fp)
  8026ec:	10800217 	ldw	r2,8(r2)
  8026f0:	1009883a 	mov	r4,r2
  8026f4:	0805b3c0 	call	805b3c <__floatsidf>
  8026f8:	1009883a 	mov	r4,r2
  8026fc:	180b883a 	mov	r5,r3
  802700:	04800044 	movi	r18,1
  802704:	200d883a 	mov	r6,r4
  802708:	280f883a 	mov	r7,r5
  80270c:	8009883a 	mov	r4,r16
  802710:	880b883a 	mov	r5,r17
  802714:	080514c0 	call	80514c <__ledf2>
  802718:	10000116 	blt	r2,zero,802720 <logic+0x1694>
  80271c:	0025883a 	mov	r18,zero
  802720:	9007883a 	mov	r3,r18
  802724:	e0bffc17 	ldw	r2,-16(fp)
  802728:	10c03805 	stb	r3,224(r2)
  d->_g64 = d->_g67 && !d->_cg60;
  80272c:	e0bffc17 	ldw	r2,-16(fp)
  802730:	10802943 	ldbu	r2,165(r2)
  802734:	10803fcc 	andi	r2,r2,255
  802738:	1080201c 	xori	r2,r2,128
  80273c:	10bfe004 	addi	r2,r2,-128
  802740:	10000826 	beq	r2,zero,802764 <logic+0x16d8>
  802744:	e0bffc17 	ldw	r2,-16(fp)
  802748:	10803803 	ldbu	r2,224(r2)
  80274c:	10803fcc 	andi	r2,r2,255
  802750:	1080201c 	xori	r2,r2,128
  802754:	10bfe004 	addi	r2,r2,-128
  802758:	1000021e 	bne	r2,zero,802764 <logic+0x16d8>
  80275c:	00800044 	movi	r2,1
  802760:	00000106 	br	802768 <logic+0x16dc>
  802764:	0005883a 	mov	r2,zero
  802768:	1007883a 	mov	r3,r2
  80276c:	e0bffc17 	ldw	r2,-16(fp)
  802770:	10c02885 	stb	r3,162(r2)
  d->_cg65 = d->_PaceMaker_local__Atrig3 || d->_PaceMaker_local__Atrig4;
  802774:	e0bffc17 	ldw	r2,-16(fp)
  802778:	10801cc3 	ldbu	r2,115(r2)
  80277c:	10803fcc 	andi	r2,r2,255
  802780:	1080201c 	xori	r2,r2,128
  802784:	10bfe004 	addi	r2,r2,-128
  802788:	1000061e 	bne	r2,zero,8027a4 <logic+0x1718>
  80278c:	e0bffc17 	ldw	r2,-16(fp)
  802790:	10801d03 	ldbu	r2,116(r2)
  802794:	10803fcc 	andi	r2,r2,255
  802798:	1080201c 	xori	r2,r2,128
  80279c:	10bfe004 	addi	r2,r2,-128
  8027a0:	10000226 	beq	r2,zero,8027ac <logic+0x1720>
  8027a4:	00800044 	movi	r2,1
  8027a8:	00000106 	br	8027b0 <logic+0x1724>
  8027ac:	0005883a 	mov	r2,zero
  8027b0:	1007883a 	mov	r3,r2
  8027b4:	e0bffc17 	ldw	r2,-16(fp)
  8027b8:	10c03885 	stb	r3,226(r2)
  d->_g66 = d->_g64 && !d->_cg65;
  8027bc:	e0bffc17 	ldw	r2,-16(fp)
  8027c0:	10802883 	ldbu	r2,162(r2)
  8027c4:	10803fcc 	andi	r2,r2,255
  8027c8:	1080201c 	xori	r2,r2,128
  8027cc:	10bfe004 	addi	r2,r2,-128
  8027d0:	10000826 	beq	r2,zero,8027f4 <logic+0x1768>
  8027d4:	e0bffc17 	ldw	r2,-16(fp)
  8027d8:	10803883 	ldbu	r2,226(r2)
  8027dc:	10803fcc 	andi	r2,r2,255
  8027e0:	1080201c 	xori	r2,r2,128
  8027e4:	10bfe004 	addi	r2,r2,-128
  8027e8:	1000021e 	bne	r2,zero,8027f4 <logic+0x1768>
  8027ec:	00800044 	movi	r2,1
  8027f0:	00000106 	br	8027f8 <logic+0x176c>
  8027f4:	0005883a 	mov	r2,zero
  8027f8:	1007883a 	mov	r3,r2
  8027fc:	e0bffc17 	ldw	r2,-16(fp)
  802800:	10c02905 	stb	r3,164(r2)
  d->_g60 = d->_g67 && d->_cg60;
  802804:	e0bffc17 	ldw	r2,-16(fp)
  802808:	10802943 	ldbu	r2,165(r2)
  80280c:	10803fcc 	andi	r2,r2,255
  802810:	1080201c 	xori	r2,r2,128
  802814:	10bfe004 	addi	r2,r2,-128
  802818:	10000826 	beq	r2,zero,80283c <logic+0x17b0>
  80281c:	e0bffc17 	ldw	r2,-16(fp)
  802820:	10803803 	ldbu	r2,224(r2)
  802824:	10803fcc 	andi	r2,r2,255
  802828:	1080201c 	xori	r2,r2,128
  80282c:	10bfe004 	addi	r2,r2,-128
  802830:	10000226 	beq	r2,zero,80283c <logic+0x17b0>
  802834:	00800044 	movi	r2,1
  802838:	00000106 	br	802840 <logic+0x17b4>
  80283c:	0005883a 	mov	r2,zero
  802840:	1007883a 	mov	r3,r2
  802844:	e0bffc17 	ldw	r2,-16(fp)
  802848:	10c02785 	stb	r3,158(r2)
  if (d->_g60) {
  80284c:	e0bffc17 	ldw	r2,-16(fp)
  802850:	10802783 	ldbu	r2,158(r2)
  802854:	10803fcc 	andi	r2,r2,255
  802858:	1080201c 	xori	r2,r2,128
  80285c:	10bfe004 	addi	r2,r2,-128
  802860:	10003426 	beq	r2,zero,802934 <logic+0x18a8>
    d->sleepT = (d->sleepT < (d->AEI_CON - d->_region3_rAEI_AEI_clock)) ? d->sleepT : (d->AEI_CON - d->_region3_rAEI_AEI_clock);
  802864:	e0bffc17 	ldw	r2,-16(fp)
  802868:	14001717 	ldw	r16,92(r2)
  80286c:	14401817 	ldw	r17,96(r2)
  802870:	e0bffc17 	ldw	r2,-16(fp)
  802874:	10800217 	ldw	r2,8(r2)
  802878:	1009883a 	mov	r4,r2
  80287c:	0805b3c0 	call	805b3c <__floatsidf>
  802880:	1011883a 	mov	r8,r2
  802884:	1813883a 	mov	r9,r3
  802888:	e13ffc17 	ldw	r4,-16(fp)
  80288c:	20800f17 	ldw	r2,60(r4)
  802890:	20c01017 	ldw	r3,64(r4)
  802894:	100d883a 	mov	r6,r2
  802898:	180f883a 	mov	r7,r3
  80289c:	4009883a 	mov	r4,r8
  8028a0:	480b883a 	mov	r5,r9
  8028a4:	08052400 	call	805240 <__subdf3>
  8028a8:	1009883a 	mov	r4,r2
  8028ac:	180b883a 	mov	r5,r3
  8028b0:	2005883a 	mov	r2,r4
  8028b4:	2807883a 	mov	r3,r5
  8028b8:	100d883a 	mov	r6,r2
  8028bc:	180f883a 	mov	r7,r3
  8028c0:	8009883a 	mov	r4,r16
  8028c4:	880b883a 	mov	r5,r17
  8028c8:	080514c0 	call	80514c <__ledf2>
  8028cc:	1000040e 	bge	r2,zero,8028e0 <logic+0x1854>
  8028d0:	e13ffc17 	ldw	r4,-16(fp)
  8028d4:	20801717 	ldw	r2,92(r4)
  8028d8:	20c01817 	ldw	r3,96(r4)
  8028dc:	00001206 	br	802928 <logic+0x189c>
  8028e0:	e0bffc17 	ldw	r2,-16(fp)
  8028e4:	10800217 	ldw	r2,8(r2)
  8028e8:	1009883a 	mov	r4,r2
  8028ec:	0805b3c0 	call	805b3c <__floatsidf>
  8028f0:	1011883a 	mov	r8,r2
  8028f4:	1813883a 	mov	r9,r3
  8028f8:	e13ffc17 	ldw	r4,-16(fp)
  8028fc:	20800f17 	ldw	r2,60(r4)
  802900:	20c01017 	ldw	r3,64(r4)
  802904:	100d883a 	mov	r6,r2
  802908:	180f883a 	mov	r7,r3
  80290c:	4009883a 	mov	r4,r8
  802910:	480b883a 	mov	r5,r9
  802914:	08052400 	call	805240 <__subdf3>
  802918:	1009883a 	mov	r4,r2
  80291c:	180b883a 	mov	r5,r3
  802920:	2005883a 	mov	r2,r4
  802924:	2807883a 	mov	r3,r5
  802928:	e13ffc17 	ldw	r4,-16(fp)
  80292c:	20801715 	stw	r2,92(r4)
  802930:	20c01815 	stw	r3,96(r4)
  }
  d->_cg61 = d->_PaceMaker_local__Atrig3 || d->_PaceMaker_local__Atrig4;
  802934:	e0bffc17 	ldw	r2,-16(fp)
  802938:	10801cc3 	ldbu	r2,115(r2)
  80293c:	10803fcc 	andi	r2,r2,255
  802940:	1080201c 	xori	r2,r2,128
  802944:	10bfe004 	addi	r2,r2,-128
  802948:	1000061e 	bne	r2,zero,802964 <logic+0x18d8>
  80294c:	e0bffc17 	ldw	r2,-16(fp)
  802950:	10801d03 	ldbu	r2,116(r2)
  802954:	10803fcc 	andi	r2,r2,255
  802958:	1080201c 	xori	r2,r2,128
  80295c:	10bfe004 	addi	r2,r2,-128
  802960:	10000226 	beq	r2,zero,80296c <logic+0x18e0>
  802964:	00800044 	movi	r2,1
  802968:	00000106 	br	802970 <logic+0x18e4>
  80296c:	0005883a 	mov	r2,zero
  802970:	1007883a 	mov	r3,r2
  802974:	e0bffc17 	ldw	r2,-16(fp)
  802978:	10c03845 	stb	r3,225(r2)
  d->_g63 = d->_g60 && !d->_cg61;
  80297c:	e0bffc17 	ldw	r2,-16(fp)
  802980:	10802783 	ldbu	r2,158(r2)
  802984:	10803fcc 	andi	r2,r2,255
  802988:	1080201c 	xori	r2,r2,128
  80298c:	10bfe004 	addi	r2,r2,-128
  802990:	10000826 	beq	r2,zero,8029b4 <logic+0x1928>
  802994:	e0bffc17 	ldw	r2,-16(fp)
  802998:	10803843 	ldbu	r2,225(r2)
  80299c:	10803fcc 	andi	r2,r2,255
  8029a0:	1080201c 	xori	r2,r2,128
  8029a4:	10bfe004 	addi	r2,r2,-128
  8029a8:	1000021e 	bne	r2,zero,8029b4 <logic+0x1928>
  8029ac:	00800044 	movi	r2,1
  8029b0:	00000106 	br	8029b8 <logic+0x192c>
  8029b4:	0005883a 	mov	r2,zero
  8029b8:	1007883a 	mov	r3,r2
  8029bc:	e0bffc17 	ldw	r2,-16(fp)
  8029c0:	10c02845 	stb	r3,161(r2)
  d->_g62_e1 = !(d->_g66 || d->_g63);
  8029c4:	e0bffc17 	ldw	r2,-16(fp)
  8029c8:	10802903 	ldbu	r2,164(r2)
  8029cc:	10803fcc 	andi	r2,r2,255
  8029d0:	1080201c 	xori	r2,r2,128
  8029d4:	10bfe004 	addi	r2,r2,-128
  8029d8:	1000081e 	bne	r2,zero,8029fc <logic+0x1970>
  8029dc:	e0bffc17 	ldw	r2,-16(fp)
  8029e0:	10802843 	ldbu	r2,161(r2)
  8029e4:	10803fcc 	andi	r2,r2,255
  8029e8:	1080201c 	xori	r2,r2,128
  8029ec:	10bfe004 	addi	r2,r2,-128
  8029f0:	1000021e 	bne	r2,zero,8029fc <logic+0x1970>
  8029f4:	00800044 	movi	r2,1
  8029f8:	00000106 	br	802a00 <logic+0x1974>
  8029fc:	0005883a 	mov	r2,zero
  802a00:	1007883a 	mov	r3,r2
  802a04:	e0bffc17 	ldw	r2,-16(fp)
  802a08:	10c03d45 	stb	r3,245(r2)
  d->_g65 = (d->_g60 && d->_cg61) || (d->_g64 && d->_cg65);
  802a0c:	e0bffc17 	ldw	r2,-16(fp)
  802a10:	10802783 	ldbu	r2,158(r2)
  802a14:	10803fcc 	andi	r2,r2,255
  802a18:	1080201c 	xori	r2,r2,128
  802a1c:	10bfe004 	addi	r2,r2,-128
  802a20:	10000626 	beq	r2,zero,802a3c <logic+0x19b0>
  802a24:	e0bffc17 	ldw	r2,-16(fp)
  802a28:	10803843 	ldbu	r2,225(r2)
  802a2c:	10803fcc 	andi	r2,r2,255
  802a30:	1080201c 	xori	r2,r2,128
  802a34:	10bfe004 	addi	r2,r2,-128
  802a38:	10000c1e 	bne	r2,zero,802a6c <logic+0x19e0>
  802a3c:	e0bffc17 	ldw	r2,-16(fp)
  802a40:	10802883 	ldbu	r2,162(r2)
  802a44:	10803fcc 	andi	r2,r2,255
  802a48:	1080201c 	xori	r2,r2,128
  802a4c:	10bfe004 	addi	r2,r2,-128
  802a50:	10000826 	beq	r2,zero,802a74 <logic+0x19e8>
  802a54:	e0bffc17 	ldw	r2,-16(fp)
  802a58:	10803883 	ldbu	r2,226(r2)
  802a5c:	10803fcc 	andi	r2,r2,255
  802a60:	1080201c 	xori	r2,r2,128
  802a64:	10bfe004 	addi	r2,r2,-128
  802a68:	10000226 	beq	r2,zero,802a74 <logic+0x19e8>
  802a6c:	00800044 	movi	r2,1
  802a70:	00000106 	br	802a78 <logic+0x19ec>
  802a74:	0005883a 	mov	r2,zero
  802a78:	1007883a 	mov	r3,r2
  802a7c:	e0bffc17 	ldw	r2,-16(fp)
  802a80:	10c028c5 	stb	r3,163(r2)
  d->_g61 = d->_g58 || (d->_g70 && !d->AS);
  802a84:	e0bffc17 	ldw	r2,-16(fp)
  802a88:	10802743 	ldbu	r2,157(r2)
  802a8c:	10803fcc 	andi	r2,r2,255
  802a90:	1080201c 	xori	r2,r2,128
  802a94:	10bfe004 	addi	r2,r2,-128
  802a98:	10000c1e 	bne	r2,zero,802acc <logic+0x1a40>
  802a9c:	e0bffc17 	ldw	r2,-16(fp)
  802aa0:	10802983 	ldbu	r2,166(r2)
  802aa4:	10803fcc 	andi	r2,r2,255
  802aa8:	1080201c 	xori	r2,r2,128
  802aac:	10bfe004 	addi	r2,r2,-128
  802ab0:	10000826 	beq	r2,zero,802ad4 <logic+0x1a48>
  802ab4:	e0bffc17 	ldw	r2,-16(fp)
  802ab8:	10800003 	ldbu	r2,0(r2)
  802abc:	10803fcc 	andi	r2,r2,255
  802ac0:	1080201c 	xori	r2,r2,128
  802ac4:	10bfe004 	addi	r2,r2,-128
  802ac8:	1000021e 	bne	r2,zero,802ad4 <logic+0x1a48>
  802acc:	00800044 	movi	r2,1
  802ad0:	00000106 	br	802ad8 <logic+0x1a4c>
  802ad4:	0005883a 	mov	r2,zero
  802ad8:	1007883a 	mov	r3,r2
  802adc:	e0bffc17 	ldw	r2,-16(fp)
  802ae0:	10c027c5 	stb	r3,159(r2)
  d->_g73 = !d->_g61;
  802ae4:	e0bffc17 	ldw	r2,-16(fp)
  802ae8:	108027c3 	ldbu	r2,159(r2)
  802aec:	10803fcc 	andi	r2,r2,255
  802af0:	1080201c 	xori	r2,r2,128
  802af4:	10bfe004 	addi	r2,r2,-128
  802af8:	1005003a 	cmpeq	r2,r2,zero
  802afc:	1007883a 	mov	r3,r2
  802b00:	e0bffc17 	ldw	r2,-16(fp)
  802b04:	10c02a45 	stb	r3,169(r2)
  d->_g58 = d->_g71 || d->_g74;
  802b08:	e0bffc17 	ldw	r2,-16(fp)
  802b0c:	108029c3 	ldbu	r2,167(r2)
  802b10:	10803fcc 	andi	r2,r2,255
  802b14:	1080201c 	xori	r2,r2,128
  802b18:	10bfe004 	addi	r2,r2,-128
  802b1c:	1000061e 	bne	r2,zero,802b38 <logic+0x1aac>
  802b20:	e0bffc17 	ldw	r2,-16(fp)
  802b24:	10802a83 	ldbu	r2,170(r2)
  802b28:	10803fcc 	andi	r2,r2,255
  802b2c:	1080201c 	xori	r2,r2,128
  802b30:	10bfe004 	addi	r2,r2,-128
  802b34:	10000226 	beq	r2,zero,802b40 <logic+0x1ab4>
  802b38:	00800044 	movi	r2,1
  802b3c:	00000106 	br	802b44 <logic+0x1ab8>
  802b40:	0005883a 	mov	r2,zero
  802b44:	1007883a 	mov	r3,r2
  802b48:	e0bffc17 	ldw	r2,-16(fp)
  802b4c:	10c02745 	stb	r3,157(r2)
  d->_g74 = (d->_g62_e1 || d->_g65) && (d->_g73 || d->_g58) && (d->_g65 || d->_g58);
  802b50:	e0bffc17 	ldw	r2,-16(fp)
  802b54:	10803d43 	ldbu	r2,245(r2)
  802b58:	10803fcc 	andi	r2,r2,255
  802b5c:	1080201c 	xori	r2,r2,128
  802b60:	10bfe004 	addi	r2,r2,-128
  802b64:	1000061e 	bne	r2,zero,802b80 <logic+0x1af4>
  802b68:	e0bffc17 	ldw	r2,-16(fp)
  802b6c:	108028c3 	ldbu	r2,163(r2)
  802b70:	10803fcc 	andi	r2,r2,255
  802b74:	1080201c 	xori	r2,r2,128
  802b78:	10bfe004 	addi	r2,r2,-128
  802b7c:	10001a26 	beq	r2,zero,802be8 <logic+0x1b5c>
  802b80:	e0bffc17 	ldw	r2,-16(fp)
  802b84:	10802a43 	ldbu	r2,169(r2)
  802b88:	10803fcc 	andi	r2,r2,255
  802b8c:	1080201c 	xori	r2,r2,128
  802b90:	10bfe004 	addi	r2,r2,-128
  802b94:	1000061e 	bne	r2,zero,802bb0 <logic+0x1b24>
  802b98:	e0bffc17 	ldw	r2,-16(fp)
  802b9c:	10802743 	ldbu	r2,157(r2)
  802ba0:	10803fcc 	andi	r2,r2,255
  802ba4:	1080201c 	xori	r2,r2,128
  802ba8:	10bfe004 	addi	r2,r2,-128
  802bac:	10000e26 	beq	r2,zero,802be8 <logic+0x1b5c>
  802bb0:	e0bffc17 	ldw	r2,-16(fp)
  802bb4:	108028c3 	ldbu	r2,163(r2)
  802bb8:	10803fcc 	andi	r2,r2,255
  802bbc:	1080201c 	xori	r2,r2,128
  802bc0:	10bfe004 	addi	r2,r2,-128
  802bc4:	1000061e 	bne	r2,zero,802be0 <logic+0x1b54>
  802bc8:	e0bffc17 	ldw	r2,-16(fp)
  802bcc:	10802743 	ldbu	r2,157(r2)
  802bd0:	10803fcc 	andi	r2,r2,255
  802bd4:	1080201c 	xori	r2,r2,128
  802bd8:	10bfe004 	addi	r2,r2,-128
  802bdc:	10000226 	beq	r2,zero,802be8 <logic+0x1b5c>
  802be0:	00800044 	movi	r2,1
  802be4:	00000106 	br	802bec <logic+0x1b60>
  802be8:	0005883a 	mov	r2,zero
  802bec:	1007883a 	mov	r3,r2
  802bf0:	e0bffc17 	ldw	r2,-16(fp)
  802bf4:	10c02a85 	stb	r3,170(r2)
  if (d->_g74) {
  802bf8:	e0bffc17 	ldw	r2,-16(fp)
  802bfc:	10802a83 	ldbu	r2,170(r2)
  802c00:	10803fcc 	andi	r2,r2,255
  802c04:	1080201c 	xori	r2,r2,128
  802c08:	10bfe004 	addi	r2,r2,-128
  802c0c:	10000626 	beq	r2,zero,802c28 <logic+0x1b9c>
    d->AEI_event |= 1;
  802c10:	e0bffc17 	ldw	r2,-16(fp)
  802c14:	10801a43 	ldbu	r2,105(r2)
  802c18:	10800054 	ori	r2,r2,1
  802c1c:	1007883a 	mov	r3,r2
  802c20:	e0bffc17 	ldw	r2,-16(fp)
  802c24:	10c01a45 	stb	r3,105(r2)
  }
  d->_g71 = d->_pg20;
  802c28:	e0bffc17 	ldw	r2,-16(fp)
  802c2c:	10c04403 	ldbu	r3,272(r2)
  802c30:	e0bffc17 	ldw	r2,-16(fp)
  802c34:	10c029c5 	stb	r3,167(r2)
  d->_cg5 = (d->AS && !d->PVARP) || d->AEI_event;
  802c38:	e0bffc17 	ldw	r2,-16(fp)
  802c3c:	10800003 	ldbu	r2,0(r2)
  802c40:	10803fcc 	andi	r2,r2,255
  802c44:	1080201c 	xori	r2,r2,128
  802c48:	10bfe004 	addi	r2,r2,-128
  802c4c:	10000626 	beq	r2,zero,802c68 <logic+0x1bdc>
  802c50:	e0bffc17 	ldw	r2,-16(fp)
  802c54:	10800743 	ldbu	r2,29(r2)
  802c58:	10803fcc 	andi	r2,r2,255
  802c5c:	1080201c 	xori	r2,r2,128
  802c60:	10bfe004 	addi	r2,r2,-128
  802c64:	10000626 	beq	r2,zero,802c80 <logic+0x1bf4>
  802c68:	e0bffc17 	ldw	r2,-16(fp)
  802c6c:	10801a43 	ldbu	r2,105(r2)
  802c70:	10803fcc 	andi	r2,r2,255
  802c74:	1080201c 	xori	r2,r2,128
  802c78:	10bfe004 	addi	r2,r2,-128
  802c7c:	10000226 	beq	r2,zero,802c88 <logic+0x1bfc>
  802c80:	00800044 	movi	r2,1
  802c84:	00000106 	br	802c8c <logic+0x1c00>
  802c88:	0005883a 	mov	r2,zero
  802c8c:	1007883a 	mov	r3,r2
  802c90:	e0bffc17 	ldw	r2,-16(fp)
  802c94:	10c03445 	stb	r3,209(r2)
  d->_g62 = d->_g71 && d->_cg5;
  802c98:	e0bffc17 	ldw	r2,-16(fp)
  802c9c:	108029c3 	ldbu	r2,167(r2)
  802ca0:	10803fcc 	andi	r2,r2,255
  802ca4:	1080201c 	xori	r2,r2,128
  802ca8:	10bfe004 	addi	r2,r2,-128
  802cac:	10000826 	beq	r2,zero,802cd0 <logic+0x1c44>
  802cb0:	e0bffc17 	ldw	r2,-16(fp)
  802cb4:	10803443 	ldbu	r2,209(r2)
  802cb8:	10803fcc 	andi	r2,r2,255
  802cbc:	1080201c 	xori	r2,r2,128
  802cc0:	10bfe004 	addi	r2,r2,-128
  802cc4:	10000226 	beq	r2,zero,802cd0 <logic+0x1c44>
  802cc8:	00800044 	movi	r2,1
  802ccc:	00000106 	br	802cd4 <logic+0x1c48>
  802cd0:	0005883a 	mov	r2,zero
  802cd4:	1007883a 	mov	r3,r2
  802cd8:	e0bffc17 	ldw	r2,-16(fp)
  802cdc:	10c02805 	stb	r3,160(r2)
  if (d->_g62) {
  802ce0:	e0bffc17 	ldw	r2,-16(fp)
  802ce4:	10802803 	ldbu	r2,160(r2)
  802ce8:	10803fcc 	andi	r2,r2,255
  802cec:	1080201c 	xori	r2,r2,128
  802cf0:	10bfe004 	addi	r2,r2,-128
  802cf4:	10000a26 	beq	r2,zero,802d20 <logic+0x1c94>
    d->AVI = 1;
  802cf8:	e0bffc17 	ldw	r2,-16(fp)
  802cfc:	00c00044 	movi	r3,1
  802d00:	10c00705 	stb	r3,28(r2)
    d->_region0_rAVI_AVI_clock = 0;
  802d04:	e0bffc17 	ldw	r2,-16(fp)
  802d08:	10000915 	stw	zero,36(r2)
  802d0c:	10000a15 	stw	zero,40(r2)
    d->_PaceMaker_local__Atrig = 0;
  802d10:	e0bffc17 	ldw	r2,-16(fp)
  802d14:	10001c05 	stb	zero,112(r2)
    d->_PaceMaker_local__Atrig1 = 0;
  802d18:	e0bffc17 	ldw	r2,-16(fp)
  802d1c:	10001c45 	stb	zero,113(r2)
  }
  d->_g72_e2 = d->_pg11;
  802d20:	e0bffc17 	ldw	r2,-16(fp)
  802d24:	10c04443 	ldbu	r3,273(r2)
  802d28:	e0bffc17 	ldw	r2,-16(fp)
  802d2c:	10c03d85 	stb	r3,246(r2)
  d->_g62_e1 = d->_pg12;
  802d30:	e0bffc17 	ldw	r2,-16(fp)
  802d34:	10c04483 	ldbu	r3,274(r2)
  802d38:	e0bffc17 	ldw	r2,-16(fp)
  802d3c:	10c03d45 	stb	r3,245(r2)
  d->_g72 = d->_g62 || d->_g72_e2 || d->_g62_e1;
  802d40:	e0bffc17 	ldw	r2,-16(fp)
  802d44:	10802803 	ldbu	r2,160(r2)
  802d48:	10803fcc 	andi	r2,r2,255
  802d4c:	1080201c 	xori	r2,r2,128
  802d50:	10bfe004 	addi	r2,r2,-128
  802d54:	10000c1e 	bne	r2,zero,802d88 <logic+0x1cfc>
  802d58:	e0bffc17 	ldw	r2,-16(fp)
  802d5c:	10803d83 	ldbu	r2,246(r2)
  802d60:	10803fcc 	andi	r2,r2,255
  802d64:	1080201c 	xori	r2,r2,128
  802d68:	10bfe004 	addi	r2,r2,-128
  802d6c:	1000061e 	bne	r2,zero,802d88 <logic+0x1cfc>
  802d70:	e0bffc17 	ldw	r2,-16(fp)
  802d74:	10803d43 	ldbu	r2,245(r2)
  802d78:	10803fcc 	andi	r2,r2,255
  802d7c:	1080201c 	xori	r2,r2,128
  802d80:	10bfe004 	addi	r2,r2,-128
  802d84:	10000226 	beq	r2,zero,802d90 <logic+0x1d04>
  802d88:	00800044 	movi	r2,1
  802d8c:	00000106 	br	802d94 <logic+0x1d08>
  802d90:	0005883a 	mov	r2,zero
  802d94:	1007883a 	mov	r3,r2
  802d98:	e0bffc17 	ldw	r2,-16(fp)
  802d9c:	10c02a05 	stb	r3,168(r2)
  d->_cg8 = d->_region0_rAVI_AVI_clock < d->AVI_CON;
  802da0:	e0bffc17 	ldw	r2,-16(fp)
  802da4:	14000917 	ldw	r16,36(r2)
  802da8:	14400a17 	ldw	r17,40(r2)
  802dac:	e0bffc17 	ldw	r2,-16(fp)
  802db0:	10800117 	ldw	r2,4(r2)
  802db4:	1009883a 	mov	r4,r2
  802db8:	0805b3c0 	call	805b3c <__floatsidf>
  802dbc:	1009883a 	mov	r4,r2
  802dc0:	180b883a 	mov	r5,r3
  802dc4:	04800044 	movi	r18,1
  802dc8:	200d883a 	mov	r6,r4
  802dcc:	280f883a 	mov	r7,r5
  802dd0:	8009883a 	mov	r4,r16
  802dd4:	880b883a 	mov	r5,r17
  802dd8:	080514c0 	call	80514c <__ledf2>
  802ddc:	10000116 	blt	r2,zero,802de4 <logic+0x1d58>
  802de0:	0025883a 	mov	r18,zero
  802de4:	9007883a 	mov	r3,r18
  802de8:	e0bffc17 	ldw	r2,-16(fp)
  802dec:	10c03485 	stb	r3,210(r2)
  d->_g15 = d->_g72 && !d->_cg8;
  802df0:	e0bffc17 	ldw	r2,-16(fp)
  802df4:	10802a03 	ldbu	r2,168(r2)
  802df8:	10803fcc 	andi	r2,r2,255
  802dfc:	1080201c 	xori	r2,r2,128
  802e00:	10bfe004 	addi	r2,r2,-128
  802e04:	10000826 	beq	r2,zero,802e28 <logic+0x1d9c>
  802e08:	e0bffc17 	ldw	r2,-16(fp)
  802e0c:	10803483 	ldbu	r2,210(r2)
  802e10:	10803fcc 	andi	r2,r2,255
  802e14:	1080201c 	xori	r2,r2,128
  802e18:	10bfe004 	addi	r2,r2,-128
  802e1c:	1000021e 	bne	r2,zero,802e28 <logic+0x1d9c>
  802e20:	00800044 	movi	r2,1
  802e24:	00000106 	br	802e2c <logic+0x1da0>
  802e28:	0005883a 	mov	r2,zero
  802e2c:	1007883a 	mov	r3,r2
  802e30:	e0bffc17 	ldw	r2,-16(fp)
  802e34:	10c02045 	stb	r3,129(r2)
  d->_cg13 = d->_PaceMaker_local__Atrig || d->_PaceMaker_local__Atrig1;
  802e38:	e0bffc17 	ldw	r2,-16(fp)
  802e3c:	10801c03 	ldbu	r2,112(r2)
  802e40:	10803fcc 	andi	r2,r2,255
  802e44:	1080201c 	xori	r2,r2,128
  802e48:	10bfe004 	addi	r2,r2,-128
  802e4c:	1000061e 	bne	r2,zero,802e68 <logic+0x1ddc>
  802e50:	e0bffc17 	ldw	r2,-16(fp)
  802e54:	10801c43 	ldbu	r2,113(r2)
  802e58:	10803fcc 	andi	r2,r2,255
  802e5c:	1080201c 	xori	r2,r2,128
  802e60:	10bfe004 	addi	r2,r2,-128
  802e64:	10000226 	beq	r2,zero,802e70 <logic+0x1de4>
  802e68:	00800044 	movi	r2,1
  802e6c:	00000106 	br	802e74 <logic+0x1de8>
  802e70:	0005883a 	mov	r2,zero
  802e74:	1007883a 	mov	r3,r2
  802e78:	e0bffc17 	ldw	r2,-16(fp)
  802e7c:	10c03505 	stb	r3,212(r2)
  d->_g12 = d->_g15 && !d->_cg13;
  802e80:	e0bffc17 	ldw	r2,-16(fp)
  802e84:	10802043 	ldbu	r2,129(r2)
  802e88:	10803fcc 	andi	r2,r2,255
  802e8c:	1080201c 	xori	r2,r2,128
  802e90:	10bfe004 	addi	r2,r2,-128
  802e94:	10000826 	beq	r2,zero,802eb8 <logic+0x1e2c>
  802e98:	e0bffc17 	ldw	r2,-16(fp)
  802e9c:	10803503 	ldbu	r2,212(r2)
  802ea0:	10803fcc 	andi	r2,r2,255
  802ea4:	1080201c 	xori	r2,r2,128
  802ea8:	10bfe004 	addi	r2,r2,-128
  802eac:	1000021e 	bne	r2,zero,802eb8 <logic+0x1e2c>
  802eb0:	00800044 	movi	r2,1
  802eb4:	00000106 	br	802ebc <logic+0x1e30>
  802eb8:	0005883a 	mov	r2,zero
  802ebc:	1007883a 	mov	r3,r2
  802ec0:	e0bffc17 	ldw	r2,-16(fp)
  802ec4:	10c01fc5 	stb	r3,127(r2)
  d->_g8 = d->_g72 && d->_cg8;
  802ec8:	e0bffc17 	ldw	r2,-16(fp)
  802ecc:	10802a03 	ldbu	r2,168(r2)
  802ed0:	10803fcc 	andi	r2,r2,255
  802ed4:	1080201c 	xori	r2,r2,128
  802ed8:	10bfe004 	addi	r2,r2,-128
  802edc:	10000826 	beq	r2,zero,802f00 <logic+0x1e74>
  802ee0:	e0bffc17 	ldw	r2,-16(fp)
  802ee4:	10803483 	ldbu	r2,210(r2)
  802ee8:	10803fcc 	andi	r2,r2,255
  802eec:	1080201c 	xori	r2,r2,128
  802ef0:	10bfe004 	addi	r2,r2,-128
  802ef4:	10000226 	beq	r2,zero,802f00 <logic+0x1e74>
  802ef8:	00800044 	movi	r2,1
  802efc:	00000106 	br	802f04 <logic+0x1e78>
  802f00:	0005883a 	mov	r2,zero
  802f04:	1007883a 	mov	r3,r2
  802f08:	e0bffc17 	ldw	r2,-16(fp)
  802f0c:	10c01ec5 	stb	r3,123(r2)
  if (d->_g8) {
  802f10:	e0bffc17 	ldw	r2,-16(fp)
  802f14:	10801ec3 	ldbu	r2,123(r2)
  802f18:	10803fcc 	andi	r2,r2,255
  802f1c:	1080201c 	xori	r2,r2,128
  802f20:	10bfe004 	addi	r2,r2,-128
  802f24:	10003426 	beq	r2,zero,802ff8 <logic+0x1f6c>
    d->sleepT = (d->sleepT < (d->AVI_CON - d->_region0_rAVI_AVI_clock)) ? d->sleepT : (d->AVI_CON - d->_region0_rAVI_AVI_clock);
  802f28:	e0bffc17 	ldw	r2,-16(fp)
  802f2c:	14001717 	ldw	r16,92(r2)
  802f30:	14401817 	ldw	r17,96(r2)
  802f34:	e0bffc17 	ldw	r2,-16(fp)
  802f38:	10800117 	ldw	r2,4(r2)
  802f3c:	1009883a 	mov	r4,r2
  802f40:	0805b3c0 	call	805b3c <__floatsidf>
  802f44:	1011883a 	mov	r8,r2
  802f48:	1813883a 	mov	r9,r3
  802f4c:	e13ffc17 	ldw	r4,-16(fp)
  802f50:	20800917 	ldw	r2,36(r4)
  802f54:	20c00a17 	ldw	r3,40(r4)
  802f58:	100d883a 	mov	r6,r2
  802f5c:	180f883a 	mov	r7,r3
  802f60:	4009883a 	mov	r4,r8
  802f64:	480b883a 	mov	r5,r9
  802f68:	08052400 	call	805240 <__subdf3>
  802f6c:	1009883a 	mov	r4,r2
  802f70:	180b883a 	mov	r5,r3
  802f74:	2005883a 	mov	r2,r4
  802f78:	2807883a 	mov	r3,r5
  802f7c:	100d883a 	mov	r6,r2
  802f80:	180f883a 	mov	r7,r3
  802f84:	8009883a 	mov	r4,r16
  802f88:	880b883a 	mov	r5,r17
  802f8c:	080514c0 	call	80514c <__ledf2>
  802f90:	1000040e 	bge	r2,zero,802fa4 <logic+0x1f18>
  802f94:	e13ffc17 	ldw	r4,-16(fp)
  802f98:	20801717 	ldw	r2,92(r4)
  802f9c:	20c01817 	ldw	r3,96(r4)
  802fa0:	00001206 	br	802fec <logic+0x1f60>
  802fa4:	e0bffc17 	ldw	r2,-16(fp)
  802fa8:	10800117 	ldw	r2,4(r2)
  802fac:	1009883a 	mov	r4,r2
  802fb0:	0805b3c0 	call	805b3c <__floatsidf>
  802fb4:	1011883a 	mov	r8,r2
  802fb8:	1813883a 	mov	r9,r3
  802fbc:	e13ffc17 	ldw	r4,-16(fp)
  802fc0:	20800917 	ldw	r2,36(r4)
  802fc4:	20c00a17 	ldw	r3,40(r4)
  802fc8:	100d883a 	mov	r6,r2
  802fcc:	180f883a 	mov	r7,r3
  802fd0:	4009883a 	mov	r4,r8
  802fd4:	480b883a 	mov	r5,r9
  802fd8:	08052400 	call	805240 <__subdf3>
  802fdc:	1009883a 	mov	r4,r2
  802fe0:	180b883a 	mov	r5,r3
  802fe4:	2005883a 	mov	r2,r4
  802fe8:	2807883a 	mov	r3,r5
  802fec:	e13ffc17 	ldw	r4,-16(fp)
  802ff0:	20801715 	stw	r2,92(r4)
  802ff4:	20c01815 	stw	r3,96(r4)
  }
  d->_cg9 = d->_PaceMaker_local__Atrig || d->_PaceMaker_local__Atrig1;
  802ff8:	e0bffc17 	ldw	r2,-16(fp)
  802ffc:	10801c03 	ldbu	r2,112(r2)
  803000:	10803fcc 	andi	r2,r2,255
  803004:	1080201c 	xori	r2,r2,128
  803008:	10bfe004 	addi	r2,r2,-128
  80300c:	1000061e 	bne	r2,zero,803028 <logic+0x1f9c>
  803010:	e0bffc17 	ldw	r2,-16(fp)
  803014:	10801c43 	ldbu	r2,113(r2)
  803018:	10803fcc 	andi	r2,r2,255
  80301c:	1080201c 	xori	r2,r2,128
  803020:	10bfe004 	addi	r2,r2,-128
  803024:	10000226 	beq	r2,zero,803030 <logic+0x1fa4>
  803028:	00800044 	movi	r2,1
  80302c:	00000106 	br	803034 <logic+0x1fa8>
  803030:	0005883a 	mov	r2,zero
  803034:	1007883a 	mov	r3,r2
  803038:	e0bffc17 	ldw	r2,-16(fp)
  80303c:	10c034c5 	stb	r3,211(r2)
  d->_g11 = d->_g8 && !d->_cg9;
  803040:	e0bffc17 	ldw	r2,-16(fp)
  803044:	10801ec3 	ldbu	r2,123(r2)
  803048:	10803fcc 	andi	r2,r2,255
  80304c:	1080201c 	xori	r2,r2,128
  803050:	10bfe004 	addi	r2,r2,-128
  803054:	10000826 	beq	r2,zero,803078 <logic+0x1fec>
  803058:	e0bffc17 	ldw	r2,-16(fp)
  80305c:	108034c3 	ldbu	r2,211(r2)
  803060:	10803fcc 	andi	r2,r2,255
  803064:	1080201c 	xori	r2,r2,128
  803068:	10bfe004 	addi	r2,r2,-128
  80306c:	1000021e 	bne	r2,zero,803078 <logic+0x1fec>
  803070:	00800044 	movi	r2,1
  803074:	00000106 	br	80307c <logic+0x1ff0>
  803078:	0005883a 	mov	r2,zero
  80307c:	1007883a 	mov	r3,r2
  803080:	e0bffc17 	ldw	r2,-16(fp)
  803084:	10c01f85 	stb	r3,126(r2)
  d->_g10_e1 = !(d->_g12 || d->_g11);
  803088:	e0bffc17 	ldw	r2,-16(fp)
  80308c:	10801fc3 	ldbu	r2,127(r2)
  803090:	10803fcc 	andi	r2,r2,255
  803094:	1080201c 	xori	r2,r2,128
  803098:	10bfe004 	addi	r2,r2,-128
  80309c:	1000081e 	bne	r2,zero,8030c0 <logic+0x2034>
  8030a0:	e0bffc17 	ldw	r2,-16(fp)
  8030a4:	10801f83 	ldbu	r2,126(r2)
  8030a8:	10803fcc 	andi	r2,r2,255
  8030ac:	1080201c 	xori	r2,r2,128
  8030b0:	10bfe004 	addi	r2,r2,-128
  8030b4:	1000021e 	bne	r2,zero,8030c0 <logic+0x2034>
  8030b8:	00800044 	movi	r2,1
  8030bc:	00000106 	br	8030c4 <logic+0x2038>
  8030c0:	0005883a 	mov	r2,zero
  8030c4:	1007883a 	mov	r3,r2
  8030c8:	e0bffc17 	ldw	r2,-16(fp)
  8030cc:	10c03c45 	stb	r3,241(r2)
  d->_g9 = (d->_g8 && d->_cg9) || (d->_g15 && d->_cg13);
  8030d0:	e0bffc17 	ldw	r2,-16(fp)
  8030d4:	10801ec3 	ldbu	r2,123(r2)
  8030d8:	10803fcc 	andi	r2,r2,255
  8030dc:	1080201c 	xori	r2,r2,128
  8030e0:	10bfe004 	addi	r2,r2,-128
  8030e4:	10000626 	beq	r2,zero,803100 <logic+0x2074>
  8030e8:	e0bffc17 	ldw	r2,-16(fp)
  8030ec:	108034c3 	ldbu	r2,211(r2)
  8030f0:	10803fcc 	andi	r2,r2,255
  8030f4:	1080201c 	xori	r2,r2,128
  8030f8:	10bfe004 	addi	r2,r2,-128
  8030fc:	10000c1e 	bne	r2,zero,803130 <logic+0x20a4>
  803100:	e0bffc17 	ldw	r2,-16(fp)
  803104:	10802043 	ldbu	r2,129(r2)
  803108:	10803fcc 	andi	r2,r2,255
  80310c:	1080201c 	xori	r2,r2,128
  803110:	10bfe004 	addi	r2,r2,-128
  803114:	10000826 	beq	r2,zero,803138 <logic+0x20ac>
  803118:	e0bffc17 	ldw	r2,-16(fp)
  80311c:	10803503 	ldbu	r2,212(r2)
  803120:	10803fcc 	andi	r2,r2,255
  803124:	1080201c 	xori	r2,r2,128
  803128:	10bfe004 	addi	r2,r2,-128
  80312c:	10000226 	beq	r2,zero,803138 <logic+0x20ac>
  803130:	00800044 	movi	r2,1
  803134:	00000106 	br	80313c <logic+0x20b0>
  803138:	0005883a 	mov	r2,zero
  80313c:	1007883a 	mov	r3,r2
  803140:	e0bffc17 	ldw	r2,-16(fp)
  803144:	10c01f05 	stb	r3,124(r2)
  d->_g13 = d->_g62 || (d->_g42 && !d->_cg21);
  803148:	e0bffc17 	ldw	r2,-16(fp)
  80314c:	10802803 	ldbu	r2,160(r2)
  803150:	10803fcc 	andi	r2,r2,255
  803154:	1080201c 	xori	r2,r2,128
  803158:	10bfe004 	addi	r2,r2,-128
  80315c:	10000c1e 	bne	r2,zero,803190 <logic+0x2104>
  803160:	e0bffc17 	ldw	r2,-16(fp)
  803164:	10802483 	ldbu	r2,146(r2)
  803168:	10803fcc 	andi	r2,r2,255
  80316c:	1080201c 	xori	r2,r2,128
  803170:	10bfe004 	addi	r2,r2,-128
  803174:	10000826 	beq	r2,zero,803198 <logic+0x210c>
  803178:	e0bffc17 	ldw	r2,-16(fp)
  80317c:	10803543 	ldbu	r2,213(r2)
  803180:	10803fcc 	andi	r2,r2,255
  803184:	1080201c 	xori	r2,r2,128
  803188:	10bfe004 	addi	r2,r2,-128
  80318c:	1000021e 	bne	r2,zero,803198 <logic+0x210c>
  803190:	00800044 	movi	r2,1
  803194:	00000106 	br	80319c <logic+0x2110>
  803198:	0005883a 	mov	r2,zero
  80319c:	1007883a 	mov	r3,r2
  8031a0:	e0bffc17 	ldw	r2,-16(fp)
  8031a4:	10c02005 	stb	r3,128(r2)
  d->_g21 = !d->_g13;
  8031a8:	e0bffc17 	ldw	r2,-16(fp)
  8031ac:	10802003 	ldbu	r2,128(r2)
  8031b0:	10803fcc 	andi	r2,r2,255
  8031b4:	1080201c 	xori	r2,r2,128
  8031b8:	10bfe004 	addi	r2,r2,-128
  8031bc:	1005003a 	cmpeq	r2,r2,zero
  8031c0:	1007883a 	mov	r3,r2
  8031c4:	e0bffc17 	ldw	r2,-16(fp)
  8031c8:	10c02145 	stb	r3,133(r2)
  d->_g6 = d->_g160 || d->_g51_e2;
  8031cc:	e0bffc17 	ldw	r2,-16(fp)
  8031d0:	10803383 	ldbu	r2,206(r2)
  8031d4:	10803fcc 	andi	r2,r2,255
  8031d8:	1080201c 	xori	r2,r2,128
  8031dc:	10bfe004 	addi	r2,r2,-128
  8031e0:	1000061e 	bne	r2,zero,8031fc <logic+0x2170>
  8031e4:	e0bffc17 	ldw	r2,-16(fp)
  8031e8:	10803d03 	ldbu	r2,244(r2)
  8031ec:	10803fcc 	andi	r2,r2,255
  8031f0:	1080201c 	xori	r2,r2,128
  8031f4:	10bfe004 	addi	r2,r2,-128
  8031f8:	10000226 	beq	r2,zero,803204 <logic+0x2178>
  8031fc:	00800044 	movi	r2,1
  803200:	00000106 	br	803208 <logic+0x217c>
  803204:	0005883a 	mov	r2,zero
  803208:	1007883a 	mov	r3,r2
  80320c:	e0bffc17 	ldw	r2,-16(fp)
  803210:	10c01e85 	stb	r3,122(r2)
  d->_g22 = (d->_g10_e1 || d->_g9) && (d->_g21 || d->_g6) && (d->_g9 || d->_g6);
  803214:	e0bffc17 	ldw	r2,-16(fp)
  803218:	10803c43 	ldbu	r2,241(r2)
  80321c:	10803fcc 	andi	r2,r2,255
  803220:	1080201c 	xori	r2,r2,128
  803224:	10bfe004 	addi	r2,r2,-128
  803228:	1000061e 	bne	r2,zero,803244 <logic+0x21b8>
  80322c:	e0bffc17 	ldw	r2,-16(fp)
  803230:	10801f03 	ldbu	r2,124(r2)
  803234:	10803fcc 	andi	r2,r2,255
  803238:	1080201c 	xori	r2,r2,128
  80323c:	10bfe004 	addi	r2,r2,-128
  803240:	10001a26 	beq	r2,zero,8032ac <logic+0x2220>
  803244:	e0bffc17 	ldw	r2,-16(fp)
  803248:	10802143 	ldbu	r2,133(r2)
  80324c:	10803fcc 	andi	r2,r2,255
  803250:	1080201c 	xori	r2,r2,128
  803254:	10bfe004 	addi	r2,r2,-128
  803258:	1000061e 	bne	r2,zero,803274 <logic+0x21e8>
  80325c:	e0bffc17 	ldw	r2,-16(fp)
  803260:	10801e83 	ldbu	r2,122(r2)
  803264:	10803fcc 	andi	r2,r2,255
  803268:	1080201c 	xori	r2,r2,128
  80326c:	10bfe004 	addi	r2,r2,-128
  803270:	10000e26 	beq	r2,zero,8032ac <logic+0x2220>
  803274:	e0bffc17 	ldw	r2,-16(fp)
  803278:	10801f03 	ldbu	r2,124(r2)
  80327c:	10803fcc 	andi	r2,r2,255
  803280:	1080201c 	xori	r2,r2,128
  803284:	10bfe004 	addi	r2,r2,-128
  803288:	1000061e 	bne	r2,zero,8032a4 <logic+0x2218>
  80328c:	e0bffc17 	ldw	r2,-16(fp)
  803290:	10801e83 	ldbu	r2,122(r2)
  803294:	10803fcc 	andi	r2,r2,255
  803298:	1080201c 	xori	r2,r2,128
  80329c:	10bfe004 	addi	r2,r2,-128
  8032a0:	10000226 	beq	r2,zero,8032ac <logic+0x2220>
  8032a4:	00800044 	movi	r2,1
  8032a8:	00000106 	br	8032b0 <logic+0x2224>
  8032ac:	0005883a 	mov	r2,zero
  8032b0:	1007883a 	mov	r3,r2
  8032b4:	e0bffc17 	ldw	r2,-16(fp)
  8032b8:	10c02185 	stb	r3,134(r2)
  if (d->_g22) {
  8032bc:	e0bffc17 	ldw	r2,-16(fp)
  8032c0:	10802183 	ldbu	r2,134(r2)
  8032c4:	10803fcc 	andi	r2,r2,255
  8032c8:	1080201c 	xori	r2,r2,128
  8032cc:	10bfe004 	addi	r2,r2,-128
  8032d0:	10000626 	beq	r2,zero,8032ec <logic+0x2260>
    d->AVI_event |= 1;
  8032d4:	e0bffc17 	ldw	r2,-16(fp)
  8032d8:	10801983 	ldbu	r2,102(r2)
  8032dc:	10800054 	ori	r2,r2,1
  8032e0:	1007883a 	mov	r3,r2
  8032e4:	e0bffc17 	ldw	r2,-16(fp)
  8032e8:	10c01985 	stb	r3,102(r2)
  }
  d->_cg23 = d->_PaceMaker_local__Atrig;
  8032ec:	e0bffc17 	ldw	r2,-16(fp)
  8032f0:	10c01c03 	ldbu	r3,112(r2)
  8032f4:	e0bffc17 	ldw	r2,-16(fp)
  8032f8:	10c03405 	stb	r3,208(r2)
  d->_g19 = d->_g22 && d->_cg23;
  8032fc:	e0bffc17 	ldw	r2,-16(fp)
  803300:	10802183 	ldbu	r2,134(r2)
  803304:	10803fcc 	andi	r2,r2,255
  803308:	1080201c 	xori	r2,r2,128
  80330c:	10bfe004 	addi	r2,r2,-128
  803310:	10000826 	beq	r2,zero,803334 <logic+0x22a8>
  803314:	e0bffc17 	ldw	r2,-16(fp)
  803318:	10803403 	ldbu	r2,208(r2)
  80331c:	10803fcc 	andi	r2,r2,255
  803320:	1080201c 	xori	r2,r2,128
  803324:	10bfe004 	addi	r2,r2,-128
  803328:	10000226 	beq	r2,zero,803334 <logic+0x22a8>
  80332c:	00800044 	movi	r2,1
  803330:	00000106 	br	803338 <logic+0x22ac>
  803334:	0005883a 	mov	r2,zero
  803338:	1007883a 	mov	r3,r2
  80333c:	e0bffc17 	ldw	r2,-16(fp)
  803340:	10c020c5 	stb	r3,131(r2)
  if (d->_g19) {
  803344:	e0bffc17 	ldw	r2,-16(fp)
  803348:	108020c3 	ldbu	r2,131(r2)
  80334c:	10803fcc 	andi	r2,r2,255
  803350:	1080201c 	xori	r2,r2,128
  803354:	10bfe004 	addi	r2,r2,-128
  803358:	10000626 	beq	r2,zero,803374 <logic+0x22e8>
    d->VP |= 1;
  80335c:	e0bffc17 	ldw	r2,-16(fp)
  803360:	10801943 	ldbu	r2,101(r2)
  803364:	10800054 	ori	r2,r2,1
  803368:	1007883a 	mov	r3,r2
  80336c:	e0bffc17 	ldw	r2,-16(fp)
  803370:	10c01945 	stb	r3,101(r2)
  }
  d->_g10_e1 = d->_GO || d->_g19 || (d->_g22 && !d->_cg23);
  803374:	e0bffc17 	ldw	r2,-16(fp)
  803378:	108033c3 	ldbu	r2,207(r2)
  80337c:	10803fcc 	andi	r2,r2,255
  803380:	1080201c 	xori	r2,r2,128
  803384:	10bfe004 	addi	r2,r2,-128
  803388:	1000121e 	bne	r2,zero,8033d4 <logic+0x2348>
  80338c:	e0bffc17 	ldw	r2,-16(fp)
  803390:	108020c3 	ldbu	r2,131(r2)
  803394:	10803fcc 	andi	r2,r2,255
  803398:	1080201c 	xori	r2,r2,128
  80339c:	10bfe004 	addi	r2,r2,-128
  8033a0:	10000c1e 	bne	r2,zero,8033d4 <logic+0x2348>
  8033a4:	e0bffc17 	ldw	r2,-16(fp)
  8033a8:	10802183 	ldbu	r2,134(r2)
  8033ac:	10803fcc 	andi	r2,r2,255
  8033b0:	1080201c 	xori	r2,r2,128
  8033b4:	10bfe004 	addi	r2,r2,-128
  8033b8:	10000826 	beq	r2,zero,8033dc <logic+0x2350>
  8033bc:	e0bffc17 	ldw	r2,-16(fp)
  8033c0:	10803403 	ldbu	r2,208(r2)
  8033c4:	10803fcc 	andi	r2,r2,255
  8033c8:	1080201c 	xori	r2,r2,128
  8033cc:	10bfe004 	addi	r2,r2,-128
  8033d0:	1000021e 	bne	r2,zero,8033dc <logic+0x2350>
  8033d4:	00800044 	movi	r2,1
  8033d8:	00000106 	br	8033e0 <logic+0x2354>
  8033dc:	0005883a 	mov	r2,zero
  8033e0:	1007883a 	mov	r3,r2
  8033e4:	e0bffc17 	ldw	r2,-16(fp)
  8033e8:	10c03c45 	stb	r3,241(r2)
  if (d->_g10_e1) {
  8033ec:	e0bffc17 	ldw	r2,-16(fp)
  8033f0:	10803c43 	ldbu	r2,241(r2)
  8033f4:	10803fcc 	andi	r2,r2,255
  8033f8:	1080201c 	xori	r2,r2,128
  8033fc:	10bfe004 	addi	r2,r2,-128
  803400:	10000226 	beq	r2,zero,80340c <logic+0x2380>
    d->AVI = 0;
  803404:	e0bffc17 	ldw	r2,-16(fp)
  803408:	10000705 	stb	zero,28(r2)
  }
  d->_g20 = d->_g10_e1 || (d->_g71 && !d->_cg5);
  80340c:	e0bffc17 	ldw	r2,-16(fp)
  803410:	10803c43 	ldbu	r2,241(r2)
  803414:	10803fcc 	andi	r2,r2,255
  803418:	1080201c 	xori	r2,r2,128
  80341c:	10bfe004 	addi	r2,r2,-128
  803420:	10000c1e 	bne	r2,zero,803454 <logic+0x23c8>
  803424:	e0bffc17 	ldw	r2,-16(fp)
  803428:	108029c3 	ldbu	r2,167(r2)
  80342c:	10803fcc 	andi	r2,r2,255
  803430:	1080201c 	xori	r2,r2,128
  803434:	10bfe004 	addi	r2,r2,-128
  803438:	10000826 	beq	r2,zero,80345c <logic+0x23d0>
  80343c:	e0bffc17 	ldw	r2,-16(fp)
  803440:	10803443 	ldbu	r2,209(r2)
  803444:	10803fcc 	andi	r2,r2,255
  803448:	1080201c 	xori	r2,r2,128
  80344c:	10bfe004 	addi	r2,r2,-128
  803450:	1000021e 	bne	r2,zero,80345c <logic+0x23d0>
  803454:	00800044 	movi	r2,1
  803458:	00000106 	br	803460 <logic+0x23d4>
  80345c:	0005883a 	mov	r2,zero
  803460:	1007883a 	mov	r3,r2
  803464:	e0bffc17 	ldw	r2,-16(fp)
  803468:	10c02105 	stb	r3,132(r2)
  d->_g10 = d->_g27 || (d->_g42_e1 && !d->_cg29);
  80346c:	e0bffc17 	ldw	r2,-16(fp)
  803470:	10802243 	ldbu	r2,137(r2)
  803474:	10803fcc 	andi	r2,r2,255
  803478:	1080201c 	xori	r2,r2,128
  80347c:	10bfe004 	addi	r2,r2,-128
  803480:	10000c1e 	bne	r2,zero,8034b4 <logic+0x2428>
  803484:	e0bffc17 	ldw	r2,-16(fp)
  803488:	10803cc3 	ldbu	r2,243(r2)
  80348c:	10803fcc 	andi	r2,r2,255
  803490:	1080201c 	xori	r2,r2,128
  803494:	10bfe004 	addi	r2,r2,-128
  803498:	10000826 	beq	r2,zero,8034bc <logic+0x2430>
  80349c:	e0bffc17 	ldw	r2,-16(fp)
  8034a0:	10803603 	ldbu	r2,216(r2)
  8034a4:	10803fcc 	andi	r2,r2,255
  8034a8:	1080201c 	xori	r2,r2,128
  8034ac:	10bfe004 	addi	r2,r2,-128
  8034b0:	1000021e 	bne	r2,zero,8034bc <logic+0x2430>
  8034b4:	00800044 	movi	r2,1
  8034b8:	00000106 	br	8034c0 <logic+0x2434>
  8034bc:	0005883a 	mov	r2,zero
  8034c0:	1007883a 	mov	r3,r2
  8034c4:	e0bffc17 	ldw	r2,-16(fp)
  8034c8:	10c01f45 	stb	r3,125(r2)
  d->_g20_e2 = d->_pg96_e2;
  8034cc:	e0bffc17 	ldw	r2,-16(fp)
  8034d0:	10c044c3 	ldbu	r3,275(r2)
  8034d4:	e0bffc17 	ldw	r2,-16(fp)
  8034d8:	10c03c85 	stb	r3,242(r2)
  if (d->_g20_e2) {
  8034dc:	e0bffc17 	ldw	r2,-16(fp)
  8034e0:	10803c83 	ldbu	r2,242(r2)
  8034e4:	10803fcc 	andi	r2,r2,255
  8034e8:	1080201c 	xori	r2,r2,128
  8034ec:	10bfe004 	addi	r2,r2,-128
  8034f0:	10001226 	beq	r2,zero,80353c <logic+0x24b0>
    d->_region1_rPVARP_PVARP_clock += d->deltaT;
  8034f4:	e13ffc17 	ldw	r4,-16(fp)
  8034f8:	20800b17 	ldw	r2,44(r4)
  8034fc:	20c00c17 	ldw	r3,48(r4)
  803500:	e1bffc17 	ldw	r6,-16(fp)
  803504:	31001517 	ldw	r4,84(r6)
  803508:	31401617 	ldw	r5,88(r6)
  80350c:	200d883a 	mov	r6,r4
  803510:	280f883a 	mov	r7,r5
  803514:	1009883a 	mov	r4,r2
  803518:	180b883a 	mov	r5,r3
  80351c:	08047c40 	call	8047c4 <__adddf3>
  803520:	1009883a 	mov	r4,r2
  803524:	180b883a 	mov	r5,r3
  803528:	2005883a 	mov	r2,r4
  80352c:	2807883a 	mov	r3,r5
  803530:	e13ffc17 	ldw	r4,-16(fp)
  803534:	20800b15 	stw	r2,44(r4)
  803538:	20c00c15 	stw	r3,48(r4)
  }
  if (d->_g52) {
  80353c:	e0bffc17 	ldw	r2,-16(fp)
  803540:	10802683 	ldbu	r2,154(r2)
  803544:	10803fcc 	andi	r2,r2,255
  803548:	1080201c 	xori	r2,r2,128
  80354c:	10bfe004 	addi	r2,r2,-128
  803550:	10000326 	beq	r2,zero,803560 <logic+0x24d4>
    d->_region1_rPVARP_PVARP_clock = 0;
  803554:	e0bffc17 	ldw	r2,-16(fp)
  803558:	10000b15 	stw	zero,44(r2)
  80355c:	10000c15 	stw	zero,48(r2)
  }
  d->_g23 = d->_g52 || (d->_g18 && !d->_cg32);
  803560:	e0bffc17 	ldw	r2,-16(fp)
  803564:	10802683 	ldbu	r2,154(r2)
  803568:	10803fcc 	andi	r2,r2,255
  80356c:	1080201c 	xori	r2,r2,128
  803570:	10bfe004 	addi	r2,r2,-128
  803574:	10000c1e 	bne	r2,zero,8035a8 <logic+0x251c>
  803578:	e0bffc17 	ldw	r2,-16(fp)
  80357c:	10802083 	ldbu	r2,130(r2)
  803580:	10803fcc 	andi	r2,r2,255
  803584:	1080201c 	xori	r2,r2,128
  803588:	10bfe004 	addi	r2,r2,-128
  80358c:	10000826 	beq	r2,zero,8035b0 <logic+0x2524>
  803590:	e0bffc17 	ldw	r2,-16(fp)
  803594:	108035c3 	ldbu	r2,215(r2)
  803598:	10803fcc 	andi	r2,r2,255
  80359c:	1080201c 	xori	r2,r2,128
  8035a0:	10bfe004 	addi	r2,r2,-128
  8035a4:	1000021e 	bne	r2,zero,8035b0 <logic+0x2524>
  8035a8:	00800044 	movi	r2,1
  8035ac:	00000106 	br	8035b4 <logic+0x2528>
  8035b0:	0005883a 	mov	r2,zero
  8035b4:	1007883a 	mov	r3,r2
  8035b8:	e0bffc17 	ldw	r2,-16(fp)
  8035bc:	10c021c5 	stb	r3,135(r2)
  d->_g24 = d->_g51 || (d->_g37 && !d->_cg37);
  8035c0:	e0bffc17 	ldw	r2,-16(fp)
  8035c4:	10802643 	ldbu	r2,153(r2)
  8035c8:	10803fcc 	andi	r2,r2,255
  8035cc:	1080201c 	xori	r2,r2,128
  8035d0:	10bfe004 	addi	r2,r2,-128
  8035d4:	10000c1e 	bne	r2,zero,803608 <logic+0x257c>
  8035d8:	e0bffc17 	ldw	r2,-16(fp)
  8035dc:	10802383 	ldbu	r2,142(r2)
  8035e0:	10803fcc 	andi	r2,r2,255
  8035e4:	1080201c 	xori	r2,r2,128
  8035e8:	10bfe004 	addi	r2,r2,-128
  8035ec:	10000826 	beq	r2,zero,803610 <logic+0x2584>
  8035f0:	e0bffc17 	ldw	r2,-16(fp)
  8035f4:	10803643 	ldbu	r2,217(r2)
  8035f8:	10803fcc 	andi	r2,r2,255
  8035fc:	1080201c 	xori	r2,r2,128
  803600:	10bfe004 	addi	r2,r2,-128
  803604:	1000021e 	bne	r2,zero,803610 <logic+0x2584>
  803608:	00800044 	movi	r2,1
  80360c:	00000106 	br	803614 <logic+0x2588>
  803610:	0005883a 	mov	r2,zero
  803614:	1007883a 	mov	r3,r2
  803618:	e0bffc17 	ldw	r2,-16(fp)
  80361c:	10c02205 	stb	r3,136(r2)
  d->_cg75 = d->_PaceMaker_local__Atrig3;
  803620:	e0bffc17 	ldw	r2,-16(fp)
  803624:	10c01cc3 	ldbu	r3,115(r2)
  803628:	e0bffc17 	ldw	r2,-16(fp)
  80362c:	10c03785 	stb	r3,222(r2)
  d->_g5 = d->_g74 && d->_cg75;
  803630:	e0bffc17 	ldw	r2,-16(fp)
  803634:	10802a83 	ldbu	r2,170(r2)
  803638:	10803fcc 	andi	r2,r2,255
  80363c:	1080201c 	xori	r2,r2,128
  803640:	10bfe004 	addi	r2,r2,-128
  803644:	10000826 	beq	r2,zero,803668 <logic+0x25dc>
  803648:	e0bffc17 	ldw	r2,-16(fp)
  80364c:	10803783 	ldbu	r2,222(r2)
  803650:	10803fcc 	andi	r2,r2,255
  803654:	1080201c 	xori	r2,r2,128
  803658:	10bfe004 	addi	r2,r2,-128
  80365c:	10000226 	beq	r2,zero,803668 <logic+0x25dc>
  803660:	00800044 	movi	r2,1
  803664:	00000106 	br	80366c <logic+0x25e0>
  803668:	0005883a 	mov	r2,zero
  80366c:	1007883a 	mov	r3,r2
  803670:	e0bffc17 	ldw	r2,-16(fp)
  803674:	10c01e45 	stb	r3,121(r2)
  if (d->_g5) {
  803678:	e0bffc17 	ldw	r2,-16(fp)
  80367c:	10801e43 	ldbu	r2,121(r2)
  803680:	10803fcc 	andi	r2,r2,255
  803684:	1080201c 	xori	r2,r2,128
  803688:	10bfe004 	addi	r2,r2,-128
  80368c:	10000626 	beq	r2,zero,8036a8 <logic+0x261c>
    d->AP |= 1;
  803690:	e0bffc17 	ldw	r2,-16(fp)
  803694:	10801903 	ldbu	r2,100(r2)
  803698:	10800054 	ori	r2,r2,1
  80369c:	1007883a 	mov	r3,r2
  8036a0:	e0bffc17 	ldw	r2,-16(fp)
  8036a4:	10c01905 	stb	r3,100(r2)
  }
  d->_g3 = d->_GO || d->_g5 || (d->_g74 && !d->_cg75);
  8036a8:	e0bffc17 	ldw	r2,-16(fp)
  8036ac:	108033c3 	ldbu	r2,207(r2)
  8036b0:	10803fcc 	andi	r2,r2,255
  8036b4:	1080201c 	xori	r2,r2,128
  8036b8:	10bfe004 	addi	r2,r2,-128
  8036bc:	1000121e 	bne	r2,zero,803708 <logic+0x267c>
  8036c0:	e0bffc17 	ldw	r2,-16(fp)
  8036c4:	10801e43 	ldbu	r2,121(r2)
  8036c8:	10803fcc 	andi	r2,r2,255
  8036cc:	1080201c 	xori	r2,r2,128
  8036d0:	10bfe004 	addi	r2,r2,-128
  8036d4:	10000c1e 	bne	r2,zero,803708 <logic+0x267c>
  8036d8:	e0bffc17 	ldw	r2,-16(fp)
  8036dc:	10802a83 	ldbu	r2,170(r2)
  8036e0:	10803fcc 	andi	r2,r2,255
  8036e4:	1080201c 	xori	r2,r2,128
  8036e8:	10bfe004 	addi	r2,r2,-128
  8036ec:	10000826 	beq	r2,zero,803710 <logic+0x2684>
  8036f0:	e0bffc17 	ldw	r2,-16(fp)
  8036f4:	10803783 	ldbu	r2,222(r2)
  8036f8:	10803fcc 	andi	r2,r2,255
  8036fc:	1080201c 	xori	r2,r2,128
  803700:	10bfe004 	addi	r2,r2,-128
  803704:	1000021e 	bne	r2,zero,803710 <logic+0x2684>
  803708:	00800044 	movi	r2,1
  80370c:	00000106 	br	803714 <logic+0x2688>
  803710:	0005883a 	mov	r2,zero
  803714:	1007883a 	mov	r3,r2
  803718:	e0bffc17 	ldw	r2,-16(fp)
  80371c:	10c01e05 	stb	r3,120(r2)
  if (d->_g3) {
  803720:	e0bffc17 	ldw	r2,-16(fp)
  803724:	10801e03 	ldbu	r2,120(r2)
  803728:	10803fcc 	andi	r2,r2,255
  80372c:	1080201c 	xori	r2,r2,128
  803730:	10bfe004 	addi	r2,r2,-128
  803734:	10000226 	beq	r2,zero,803740 <logic+0x26b4>
    d->AEI = 0;
  803738:	e0bffc17 	ldw	r2,-16(fp)
  80373c:	100007c5 	stb	zero,31(r2)
  }
  d->_g27 = d->_g3 || (d->_g57 && !d->_cg57);
  803740:	e0bffc17 	ldw	r2,-16(fp)
  803744:	10801e03 	ldbu	r2,120(r2)
  803748:	10803fcc 	andi	r2,r2,255
  80374c:	1080201c 	xori	r2,r2,128
  803750:	10bfe004 	addi	r2,r2,-128
  803754:	10000c1e 	bne	r2,zero,803788 <logic+0x26fc>
  803758:	e0bffc17 	ldw	r2,-16(fp)
  80375c:	10802703 	ldbu	r2,156(r2)
  803760:	10803fcc 	andi	r2,r2,255
  803764:	1080201c 	xori	r2,r2,128
  803768:	10bfe004 	addi	r2,r2,-128
  80376c:	10000826 	beq	r2,zero,803790 <logic+0x2704>
  803770:	e0bffc17 	ldw	r2,-16(fp)
  803774:	108037c3 	ldbu	r2,223(r2)
  803778:	10803fcc 	andi	r2,r2,255
  80377c:	1080201c 	xori	r2,r2,128
  803780:	10bfe004 	addi	r2,r2,-128
  803784:	1000021e 	bne	r2,zero,803790 <logic+0x2704>
  803788:	00800044 	movi	r2,1
  80378c:	00000106 	br	803794 <logic+0x2708>
  803790:	0005883a 	mov	r2,zero
  803794:	1007883a 	mov	r3,r2
  803798:	e0bffc17 	ldw	r2,-16(fp)
  80379c:	10c02245 	stb	r3,137(r2)
  d->_g29 = d->_pg85;
  8037a0:	e0bffc17 	ldw	r2,-16(fp)
  8037a4:	10c04503 	ldbu	r3,276(r2)
  8037a8:	e0bffc17 	ldw	r2,-16(fp)
  8037ac:	10c02285 	stb	r3,138(r2)
  d->_cg94 = d->AVI_event;
  8037b0:	e0bffc17 	ldw	r2,-16(fp)
  8037b4:	10c01983 	ldbu	r3,102(r2)
  8037b8:	e0bffc17 	ldw	r2,-16(fp)
  8037bc:	10c03ac5 	stb	r3,235(r2)
  d->_g30 = d->_g29 && d->_cg94;
  8037c0:	e0bffc17 	ldw	r2,-16(fp)
  8037c4:	10802283 	ldbu	r2,138(r2)
  8037c8:	10803fcc 	andi	r2,r2,255
  8037cc:	1080201c 	xori	r2,r2,128
  8037d0:	10bfe004 	addi	r2,r2,-128
  8037d4:	10000826 	beq	r2,zero,8037f8 <logic+0x276c>
  8037d8:	e0bffc17 	ldw	r2,-16(fp)
  8037dc:	10803ac3 	ldbu	r2,235(r2)
  8037e0:	10803fcc 	andi	r2,r2,255
  8037e4:	1080201c 	xori	r2,r2,128
  8037e8:	10bfe004 	addi	r2,r2,-128
  8037ec:	10000226 	beq	r2,zero,8037f8 <logic+0x276c>
  8037f0:	00800044 	movi	r2,1
  8037f4:	00000106 	br	8037fc <logic+0x2770>
  8037f8:	0005883a 	mov	r2,zero
  8037fc:	1007883a 	mov	r3,r2
  803800:	e0bffc17 	ldw	r2,-16(fp)
  803804:	10c022c5 	stb	r3,139(r2)
  if (d->_g30) {
  803808:	e0bffc17 	ldw	r2,-16(fp)
  80380c:	108022c3 	ldbu	r2,139(r2)
  803810:	10803fcc 	andi	r2,r2,255
  803814:	1080201c 	xori	r2,r2,128
  803818:	10bfe004 	addi	r2,r2,-128
  80381c:	10000326 	beq	r2,zero,80382c <logic+0x27a0>
    d->_PaceMaker_local__Atrig5 = 1;
  803820:	e0bffc17 	ldw	r2,-16(fp)
  803824:	00c00044 	movi	r3,1
  803828:	10c01d45 	stb	r3,117(r2)
  }
  d->_g32 = d->_pg79;
  80382c:	e0bffc17 	ldw	r2,-16(fp)
  803830:	10c04543 	ldbu	r3,277(r2)
  803834:	e0bffc17 	ldw	r2,-16(fp)
  803838:	10c02305 	stb	r3,140(r2)
  if (d->_g32) {
  80383c:	e0bffc17 	ldw	r2,-16(fp)
  803840:	10802303 	ldbu	r2,140(r2)
  803844:	10803fcc 	andi	r2,r2,255
  803848:	1080201c 	xori	r2,r2,128
  80384c:	10bfe004 	addi	r2,r2,-128
  803850:	10001226 	beq	r2,zero,80389c <logic+0x2810>
    d->_region4_rLRI_LRI_clock += d->deltaT;
  803854:	e13ffc17 	ldw	r4,-16(fp)
  803858:	20801117 	ldw	r2,68(r4)
  80385c:	20c01217 	ldw	r3,72(r4)
  803860:	e1bffc17 	ldw	r6,-16(fp)
  803864:	31001517 	ldw	r4,84(r6)
  803868:	31401617 	ldw	r5,88(r6)
  80386c:	200d883a 	mov	r6,r4
  803870:	280f883a 	mov	r7,r5
  803874:	1009883a 	mov	r4,r2
  803878:	180b883a 	mov	r5,r3
  80387c:	08047c40 	call	8047c4 <__adddf3>
  803880:	1009883a 	mov	r4,r2
  803884:	180b883a 	mov	r5,r3
  803888:	2005883a 	mov	r2,r4
  80388c:	2807883a 	mov	r3,r5
  803890:	e13ffc17 	ldw	r4,-16(fp)
  803894:	20801115 	stw	r2,68(r4)
  803898:	20c01215 	stw	r3,72(r4)
  }
  d->_g37 = d->_g29 && !d->_cg94;
  80389c:	e0bffc17 	ldw	r2,-16(fp)
  8038a0:	10802283 	ldbu	r2,138(r2)
  8038a4:	10803fcc 	andi	r2,r2,255
  8038a8:	1080201c 	xori	r2,r2,128
  8038ac:	10bfe004 	addi	r2,r2,-128
  8038b0:	10000826 	beq	r2,zero,8038d4 <logic+0x2848>
  8038b4:	e0bffc17 	ldw	r2,-16(fp)
  8038b8:	10803ac3 	ldbu	r2,235(r2)
  8038bc:	10803fcc 	andi	r2,r2,255
  8038c0:	1080201c 	xori	r2,r2,128
  8038c4:	10bfe004 	addi	r2,r2,-128
  8038c8:	1000021e 	bne	r2,zero,8038d4 <logic+0x2848>
  8038cc:	00800044 	movi	r2,1
  8038d0:	00000106 	br	8038d8 <logic+0x284c>
  8038d4:	0005883a 	mov	r2,zero
  8038d8:	1007883a 	mov	r3,r2
  8038dc:	e0bffc17 	ldw	r2,-16(fp)
  8038e0:	10c02385 	stb	r3,142(r2)
  d->_cg97 = d->_region4_rLRI_LRI_clock >= d->LRI_CON;
  8038e4:	e0bffc17 	ldw	r2,-16(fp)
  8038e8:	14001117 	ldw	r16,68(r2)
  8038ec:	14401217 	ldw	r17,72(r2)
  8038f0:	e0bffc17 	ldw	r2,-16(fp)
  8038f4:	10800517 	ldw	r2,20(r2)
  8038f8:	1009883a 	mov	r4,r2
  8038fc:	0805b3c0 	call	805b3c <__floatsidf>
  803900:	1009883a 	mov	r4,r2
  803904:	180b883a 	mov	r5,r3
  803908:	04800044 	movi	r18,1
  80390c:	200d883a 	mov	r6,r4
  803910:	280f883a 	mov	r7,r5
  803914:	8009883a 	mov	r4,r16
  803918:	880b883a 	mov	r5,r17
  80391c:	08050700 	call	805070 <__gedf2>
  803920:	1000010e 	bge	r2,zero,803928 <logic+0x289c>
  803924:	0025883a 	mov	r18,zero
  803928:	9007883a 	mov	r3,r18
  80392c:	e0bffc17 	ldw	r2,-16(fp)
  803930:	10c03a85 	stb	r3,234(r2)
  d->_g35 = d->_g37 && d->_cg97;
  803934:	e0bffc17 	ldw	r2,-16(fp)
  803938:	10802383 	ldbu	r2,142(r2)
  80393c:	10803fcc 	andi	r2,r2,255
  803940:	1080201c 	xori	r2,r2,128
  803944:	10bfe004 	addi	r2,r2,-128
  803948:	10000826 	beq	r2,zero,80396c <logic+0x28e0>
  80394c:	e0bffc17 	ldw	r2,-16(fp)
  803950:	10803a83 	ldbu	r2,234(r2)
  803954:	10803fcc 	andi	r2,r2,255
  803958:	1080201c 	xori	r2,r2,128
  80395c:	10bfe004 	addi	r2,r2,-128
  803960:	10000226 	beq	r2,zero,80396c <logic+0x28e0>
  803964:	00800044 	movi	r2,1
  803968:	00000106 	br	803970 <logic+0x28e4>
  80396c:	0005883a 	mov	r2,zero
  803970:	1007883a 	mov	r3,r2
  803974:	e0bffc17 	ldw	r2,-16(fp)
  803978:	10c02345 	stb	r3,141(r2)
  if (d->_g35) {
  80397c:	e0bffc17 	ldw	r2,-16(fp)
  803980:	10802343 	ldbu	r2,141(r2)
  803984:	10803fcc 	andi	r2,r2,255
  803988:	1080201c 	xori	r2,r2,128
  80398c:	10bfe004 	addi	r2,r2,-128
  803990:	10000326 	beq	r2,zero,8039a0 <logic+0x2914>
    d->_PaceMaker_local__Atrig6 = 1;
  803994:	e0bffc17 	ldw	r2,-16(fp)
  803998:	00c00044 	movi	r3,1
  80399c:	10c01d85 	stb	r3,118(r2)
  }
  d->_g75 = d->_pg96;
  8039a0:	e0bffc17 	ldw	r2,-16(fp)
  8039a4:	10c04583 	ldbu	r3,278(r2)
  8039a8:	e0bffc17 	ldw	r2,-16(fp)
  8039ac:	10c02ac5 	stb	r3,171(r2)
  d->_cg81 = d->_pre_AVI_event;
  8039b0:	e0bffc17 	ldw	r2,-16(fp)
  8039b4:	10c01b43 	ldbu	r3,109(r2)
  8039b8:	e0bffc17 	ldw	r2,-16(fp)
  8039bc:	10c03985 	stb	r3,230(r2)
  d->_g76 = d->_g75 && d->_cg81;
  8039c0:	e0bffc17 	ldw	r2,-16(fp)
  8039c4:	10802ac3 	ldbu	r2,171(r2)
  8039c8:	10803fcc 	andi	r2,r2,255
  8039cc:	1080201c 	xori	r2,r2,128
  8039d0:	10bfe004 	addi	r2,r2,-128
  8039d4:	10000826 	beq	r2,zero,8039f8 <logic+0x296c>
  8039d8:	e0bffc17 	ldw	r2,-16(fp)
  8039dc:	10803983 	ldbu	r2,230(r2)
  8039e0:	10803fcc 	andi	r2,r2,255
  8039e4:	1080201c 	xori	r2,r2,128
  8039e8:	10bfe004 	addi	r2,r2,-128
  8039ec:	10000226 	beq	r2,zero,8039f8 <logic+0x296c>
  8039f0:	00800044 	movi	r2,1
  8039f4:	00000106 	br	8039fc <logic+0x2970>
  8039f8:	0005883a 	mov	r2,zero
  8039fc:	1007883a 	mov	r3,r2
  803a00:	e0bffc17 	ldw	r2,-16(fp)
  803a04:	10c02b05 	stb	r3,172(r2)
  if (d->_g76) {
  803a08:	e0bffc17 	ldw	r2,-16(fp)
  803a0c:	10802b03 	ldbu	r2,172(r2)
  803a10:	10803fcc 	andi	r2,r2,255
  803a14:	1080201c 	xori	r2,r2,128
  803a18:	10bfe004 	addi	r2,r2,-128
  803a1c:	10000a26 	beq	r2,zero,803a48 <logic+0x29bc>
    d->LRI = 1;
  803a20:	e0bffc17 	ldw	r2,-16(fp)
  803a24:	00c00044 	movi	r3,1
  803a28:	10c00805 	stb	r3,32(r2)
    d->_region4_rLRI_LRI_clock = 0;
  803a2c:	e0bffc17 	ldw	r2,-16(fp)
  803a30:	10001115 	stw	zero,68(r2)
  803a34:	10001215 	stw	zero,72(r2)
    d->_PaceMaker_local__Atrig5 = 0;
  803a38:	e0bffc17 	ldw	r2,-16(fp)
  803a3c:	10001d45 	stb	zero,117(r2)
    d->_PaceMaker_local__Atrig6 = 0;
  803a40:	e0bffc17 	ldw	r2,-16(fp)
  803a44:	10001d85 	stb	zero,118(r2)
  }
  d->_g55 = d->_pg87;
  803a48:	e0bffc17 	ldw	r2,-16(fp)
  803a4c:	10c045c3 	ldbu	r3,279(r2)
  803a50:	e0bffc17 	ldw	r2,-16(fp)
  803a54:	10c026c5 	stb	r3,155(r2)
  d->_g57 = d->_pg88;
  803a58:	e0bffc17 	ldw	r2,-16(fp)
  803a5c:	10c04603 	ldbu	r3,280(r2)
  803a60:	e0bffc17 	ldw	r2,-16(fp)
  803a64:	10c02705 	stb	r3,156(r2)
  d->_g94 = d->_g76 || d->_g55 || d->_g57;
  803a68:	e0bffc17 	ldw	r2,-16(fp)
  803a6c:	10802b03 	ldbu	r2,172(r2)
  803a70:	10803fcc 	andi	r2,r2,255
  803a74:	1080201c 	xori	r2,r2,128
  803a78:	10bfe004 	addi	r2,r2,-128
  803a7c:	10000c1e 	bne	r2,zero,803ab0 <logic+0x2a24>
  803a80:	e0bffc17 	ldw	r2,-16(fp)
  803a84:	108026c3 	ldbu	r2,155(r2)
  803a88:	10803fcc 	andi	r2,r2,255
  803a8c:	1080201c 	xori	r2,r2,128
  803a90:	10bfe004 	addi	r2,r2,-128
  803a94:	1000061e 	bne	r2,zero,803ab0 <logic+0x2a24>
  803a98:	e0bffc17 	ldw	r2,-16(fp)
  803a9c:	10802703 	ldbu	r2,156(r2)
  803aa0:	10803fcc 	andi	r2,r2,255
  803aa4:	1080201c 	xori	r2,r2,128
  803aa8:	10bfe004 	addi	r2,r2,-128
  803aac:	10000226 	beq	r2,zero,803ab8 <logic+0x2a2c>
  803ab0:	00800044 	movi	r2,1
  803ab4:	00000106 	br	803abc <logic+0x2a30>
  803ab8:	0005883a 	mov	r2,zero
  803abc:	1007883a 	mov	r3,r2
  803ac0:	e0bffc17 	ldw	r2,-16(fp)
  803ac4:	10c02dc5 	stb	r3,183(r2)
  d->_cg84 = d->_region4_rLRI_LRI_clock < d->LRI_CON;
  803ac8:	e0bffc17 	ldw	r2,-16(fp)
  803acc:	14001117 	ldw	r16,68(r2)
  803ad0:	14401217 	ldw	r17,72(r2)
  803ad4:	e0bffc17 	ldw	r2,-16(fp)
  803ad8:	10800517 	ldw	r2,20(r2)
  803adc:	1009883a 	mov	r4,r2
  803ae0:	0805b3c0 	call	805b3c <__floatsidf>
  803ae4:	1009883a 	mov	r4,r2
  803ae8:	180b883a 	mov	r5,r3
  803aec:	04800044 	movi	r18,1
  803af0:	200d883a 	mov	r6,r4
  803af4:	280f883a 	mov	r7,r5
  803af8:	8009883a 	mov	r4,r16
  803afc:	880b883a 	mov	r5,r17
  803b00:	080514c0 	call	80514c <__ledf2>
  803b04:	10000116 	blt	r2,zero,803b0c <logic+0x2a80>
  803b08:	0025883a 	mov	r18,zero
  803b0c:	9007883a 	mov	r3,r18
  803b10:	e0bffc17 	ldw	r2,-16(fp)
  803b14:	10c039c5 	stb	r3,231(r2)
  d->_g91 = d->_g94 && !d->_cg84;
  803b18:	e0bffc17 	ldw	r2,-16(fp)
  803b1c:	10802dc3 	ldbu	r2,183(r2)
  803b20:	10803fcc 	andi	r2,r2,255
  803b24:	1080201c 	xori	r2,r2,128
  803b28:	10bfe004 	addi	r2,r2,-128
  803b2c:	10000826 	beq	r2,zero,803b50 <logic+0x2ac4>
  803b30:	e0bffc17 	ldw	r2,-16(fp)
  803b34:	108039c3 	ldbu	r2,231(r2)
  803b38:	10803fcc 	andi	r2,r2,255
  803b3c:	1080201c 	xori	r2,r2,128
  803b40:	10bfe004 	addi	r2,r2,-128
  803b44:	1000021e 	bne	r2,zero,803b50 <logic+0x2ac4>
  803b48:	00800044 	movi	r2,1
  803b4c:	00000106 	br	803b54 <logic+0x2ac8>
  803b50:	0005883a 	mov	r2,zero
  803b54:	1007883a 	mov	r3,r2
  803b58:	e0bffc17 	ldw	r2,-16(fp)
  803b5c:	10c02d85 	stb	r3,182(r2)
  d->_cg89 = d->_PaceMaker_local__Atrig5 || d->_PaceMaker_local__Atrig6;
  803b60:	e0bffc17 	ldw	r2,-16(fp)
  803b64:	10801d43 	ldbu	r2,117(r2)
  803b68:	10803fcc 	andi	r2,r2,255
  803b6c:	1080201c 	xori	r2,r2,128
  803b70:	10bfe004 	addi	r2,r2,-128
  803b74:	1000061e 	bne	r2,zero,803b90 <logic+0x2b04>
  803b78:	e0bffc17 	ldw	r2,-16(fp)
  803b7c:	10801d83 	ldbu	r2,118(r2)
  803b80:	10803fcc 	andi	r2,r2,255
  803b84:	1080201c 	xori	r2,r2,128
  803b88:	10bfe004 	addi	r2,r2,-128
  803b8c:	10000226 	beq	r2,zero,803b98 <logic+0x2b0c>
  803b90:	00800044 	movi	r2,1
  803b94:	00000106 	br	803b9c <logic+0x2b10>
  803b98:	0005883a 	mov	r2,zero
  803b9c:	1007883a 	mov	r3,r2
  803ba0:	e0bffc17 	ldw	r2,-16(fp)
  803ba4:	10c03a45 	stb	r3,233(r2)
  d->_g88 = d->_g91 && !d->_cg89;
  803ba8:	e0bffc17 	ldw	r2,-16(fp)
  803bac:	10802d83 	ldbu	r2,182(r2)
  803bb0:	10803fcc 	andi	r2,r2,255
  803bb4:	1080201c 	xori	r2,r2,128
  803bb8:	10bfe004 	addi	r2,r2,-128
  803bbc:	10000826 	beq	r2,zero,803be0 <logic+0x2b54>
  803bc0:	e0bffc17 	ldw	r2,-16(fp)
  803bc4:	10803a43 	ldbu	r2,233(r2)
  803bc8:	10803fcc 	andi	r2,r2,255
  803bcc:	1080201c 	xori	r2,r2,128
  803bd0:	10bfe004 	addi	r2,r2,-128
  803bd4:	1000021e 	bne	r2,zero,803be0 <logic+0x2b54>
  803bd8:	00800044 	movi	r2,1
  803bdc:	00000106 	br	803be4 <logic+0x2b58>
  803be0:	0005883a 	mov	r2,zero
  803be4:	1007883a 	mov	r3,r2
  803be8:	e0bffc17 	ldw	r2,-16(fp)
  803bec:	10c02d05 	stb	r3,180(r2)
  d->_g84 = d->_g94 && d->_cg84;
  803bf0:	e0bffc17 	ldw	r2,-16(fp)
  803bf4:	10802dc3 	ldbu	r2,183(r2)
  803bf8:	10803fcc 	andi	r2,r2,255
  803bfc:	1080201c 	xori	r2,r2,128
  803c00:	10bfe004 	addi	r2,r2,-128
  803c04:	10000826 	beq	r2,zero,803c28 <logic+0x2b9c>
  803c08:	e0bffc17 	ldw	r2,-16(fp)
  803c0c:	108039c3 	ldbu	r2,231(r2)
  803c10:	10803fcc 	andi	r2,r2,255
  803c14:	1080201c 	xori	r2,r2,128
  803c18:	10bfe004 	addi	r2,r2,-128
  803c1c:	10000226 	beq	r2,zero,803c28 <logic+0x2b9c>
  803c20:	00800044 	movi	r2,1
  803c24:	00000106 	br	803c2c <logic+0x2ba0>
  803c28:	0005883a 	mov	r2,zero
  803c2c:	1007883a 	mov	r3,r2
  803c30:	e0bffc17 	ldw	r2,-16(fp)
  803c34:	10c02c05 	stb	r3,176(r2)
  if (d->_g84) {
  803c38:	e0bffc17 	ldw	r2,-16(fp)
  803c3c:	10802c03 	ldbu	r2,176(r2)
  803c40:	10803fcc 	andi	r2,r2,255
  803c44:	1080201c 	xori	r2,r2,128
  803c48:	10bfe004 	addi	r2,r2,-128
  803c4c:	10003426 	beq	r2,zero,803d20 <logic+0x2c94>
    d->sleepT = (d->sleepT < (d->LRI_CON - d->_region4_rLRI_LRI_clock)) ? d->sleepT : (d->LRI_CON - d->_region4_rLRI_LRI_clock);
  803c50:	e0bffc17 	ldw	r2,-16(fp)
  803c54:	14001717 	ldw	r16,92(r2)
  803c58:	14401817 	ldw	r17,96(r2)
  803c5c:	e0bffc17 	ldw	r2,-16(fp)
  803c60:	10800517 	ldw	r2,20(r2)
  803c64:	1009883a 	mov	r4,r2
  803c68:	0805b3c0 	call	805b3c <__floatsidf>
  803c6c:	1011883a 	mov	r8,r2
  803c70:	1813883a 	mov	r9,r3
  803c74:	e13ffc17 	ldw	r4,-16(fp)
  803c78:	20801117 	ldw	r2,68(r4)
  803c7c:	20c01217 	ldw	r3,72(r4)
  803c80:	100d883a 	mov	r6,r2
  803c84:	180f883a 	mov	r7,r3
  803c88:	4009883a 	mov	r4,r8
  803c8c:	480b883a 	mov	r5,r9
  803c90:	08052400 	call	805240 <__subdf3>
  803c94:	1009883a 	mov	r4,r2
  803c98:	180b883a 	mov	r5,r3
  803c9c:	2005883a 	mov	r2,r4
  803ca0:	2807883a 	mov	r3,r5
  803ca4:	100d883a 	mov	r6,r2
  803ca8:	180f883a 	mov	r7,r3
  803cac:	8009883a 	mov	r4,r16
  803cb0:	880b883a 	mov	r5,r17
  803cb4:	080514c0 	call	80514c <__ledf2>
  803cb8:	1000040e 	bge	r2,zero,803ccc <logic+0x2c40>
  803cbc:	e13ffc17 	ldw	r4,-16(fp)
  803cc0:	20801717 	ldw	r2,92(r4)
  803cc4:	20c01817 	ldw	r3,96(r4)
  803cc8:	00001206 	br	803d14 <logic+0x2c88>
  803ccc:	e0bffc17 	ldw	r2,-16(fp)
  803cd0:	10800517 	ldw	r2,20(r2)
  803cd4:	1009883a 	mov	r4,r2
  803cd8:	0805b3c0 	call	805b3c <__floatsidf>
  803cdc:	1011883a 	mov	r8,r2
  803ce0:	1813883a 	mov	r9,r3
  803ce4:	e13ffc17 	ldw	r4,-16(fp)
  803ce8:	20801117 	ldw	r2,68(r4)
  803cec:	20c01217 	ldw	r3,72(r4)
  803cf0:	100d883a 	mov	r6,r2
  803cf4:	180f883a 	mov	r7,r3
  803cf8:	4009883a 	mov	r4,r8
  803cfc:	480b883a 	mov	r5,r9
  803d00:	08052400 	call	805240 <__subdf3>
  803d04:	1009883a 	mov	r4,r2
  803d08:	180b883a 	mov	r5,r3
  803d0c:	2005883a 	mov	r2,r4
  803d10:	2807883a 	mov	r3,r5
  803d14:	e13ffc17 	ldw	r4,-16(fp)
  803d18:	20801715 	stw	r2,92(r4)
  803d1c:	20c01815 	stw	r3,96(r4)
  }
  d->_cg85 = d->_PaceMaker_local__Atrig5 || d->_PaceMaker_local__Atrig6;
  803d20:	e0bffc17 	ldw	r2,-16(fp)
  803d24:	10801d43 	ldbu	r2,117(r2)
  803d28:	10803fcc 	andi	r2,r2,255
  803d2c:	1080201c 	xori	r2,r2,128
  803d30:	10bfe004 	addi	r2,r2,-128
  803d34:	1000061e 	bne	r2,zero,803d50 <logic+0x2cc4>
  803d38:	e0bffc17 	ldw	r2,-16(fp)
  803d3c:	10801d83 	ldbu	r2,118(r2)
  803d40:	10803fcc 	andi	r2,r2,255
  803d44:	1080201c 	xori	r2,r2,128
  803d48:	10bfe004 	addi	r2,r2,-128
  803d4c:	10000226 	beq	r2,zero,803d58 <logic+0x2ccc>
  803d50:	00800044 	movi	r2,1
  803d54:	00000106 	br	803d5c <logic+0x2cd0>
  803d58:	0005883a 	mov	r2,zero
  803d5c:	1007883a 	mov	r3,r2
  803d60:	e0bffc17 	ldw	r2,-16(fp)
  803d64:	10c03a05 	stb	r3,232(r2)
  d->_g87 = d->_g84 && !d->_cg85;
  803d68:	e0bffc17 	ldw	r2,-16(fp)
  803d6c:	10802c03 	ldbu	r2,176(r2)
  803d70:	10803fcc 	andi	r2,r2,255
  803d74:	1080201c 	xori	r2,r2,128
  803d78:	10bfe004 	addi	r2,r2,-128
  803d7c:	10000826 	beq	r2,zero,803da0 <logic+0x2d14>
  803d80:	e0bffc17 	ldw	r2,-16(fp)
  803d84:	10803a03 	ldbu	r2,232(r2)
  803d88:	10803fcc 	andi	r2,r2,255
  803d8c:	1080201c 	xori	r2,r2,128
  803d90:	10bfe004 	addi	r2,r2,-128
  803d94:	1000021e 	bne	r2,zero,803da0 <logic+0x2d14>
  803d98:	00800044 	movi	r2,1
  803d9c:	00000106 	br	803da4 <logic+0x2d18>
  803da0:	0005883a 	mov	r2,zero
  803da4:	1007883a 	mov	r3,r2
  803da8:	e0bffc17 	ldw	r2,-16(fp)
  803dac:	10c02cc5 	stb	r3,179(r2)
  d->_g86_e1 = !(d->_g88 || d->_g87);
  803db0:	e0bffc17 	ldw	r2,-16(fp)
  803db4:	10802d03 	ldbu	r2,180(r2)
  803db8:	10803fcc 	andi	r2,r2,255
  803dbc:	1080201c 	xori	r2,r2,128
  803dc0:	10bfe004 	addi	r2,r2,-128
  803dc4:	1000081e 	bne	r2,zero,803de8 <logic+0x2d5c>
  803dc8:	e0bffc17 	ldw	r2,-16(fp)
  803dcc:	10802cc3 	ldbu	r2,179(r2)
  803dd0:	10803fcc 	andi	r2,r2,255
  803dd4:	1080201c 	xori	r2,r2,128
  803dd8:	10bfe004 	addi	r2,r2,-128
  803ddc:	1000021e 	bne	r2,zero,803de8 <logic+0x2d5c>
  803de0:	00800044 	movi	r2,1
  803de4:	00000106 	br	803dec <logic+0x2d60>
  803de8:	0005883a 	mov	r2,zero
  803dec:	1007883a 	mov	r3,r2
  803df0:	e0bffc17 	ldw	r2,-16(fp)
  803df4:	10c03dc5 	stb	r3,247(r2)
  d->_g89 = (d->_g84 && d->_cg85) || (d->_g91 && d->_cg89);
  803df8:	e0bffc17 	ldw	r2,-16(fp)
  803dfc:	10802c03 	ldbu	r2,176(r2)
  803e00:	10803fcc 	andi	r2,r2,255
  803e04:	1080201c 	xori	r2,r2,128
  803e08:	10bfe004 	addi	r2,r2,-128
  803e0c:	10000626 	beq	r2,zero,803e28 <logic+0x2d9c>
  803e10:	e0bffc17 	ldw	r2,-16(fp)
  803e14:	10803a03 	ldbu	r2,232(r2)
  803e18:	10803fcc 	andi	r2,r2,255
  803e1c:	1080201c 	xori	r2,r2,128
  803e20:	10bfe004 	addi	r2,r2,-128
  803e24:	10000c1e 	bne	r2,zero,803e58 <logic+0x2dcc>
  803e28:	e0bffc17 	ldw	r2,-16(fp)
  803e2c:	10802d83 	ldbu	r2,182(r2)
  803e30:	10803fcc 	andi	r2,r2,255
  803e34:	1080201c 	xori	r2,r2,128
  803e38:	10bfe004 	addi	r2,r2,-128
  803e3c:	10000826 	beq	r2,zero,803e60 <logic+0x2dd4>
  803e40:	e0bffc17 	ldw	r2,-16(fp)
  803e44:	10803a43 	ldbu	r2,233(r2)
  803e48:	10803fcc 	andi	r2,r2,255
  803e4c:	1080201c 	xori	r2,r2,128
  803e50:	10bfe004 	addi	r2,r2,-128
  803e54:	10000226 	beq	r2,zero,803e60 <logic+0x2dd4>
  803e58:	00800044 	movi	r2,1
  803e5c:	00000106 	br	803e64 <logic+0x2dd8>
  803e60:	0005883a 	mov	r2,zero
  803e64:	1007883a 	mov	r3,r2
  803e68:	e0bffc17 	ldw	r2,-16(fp)
  803e6c:	10c02d45 	stb	r3,181(r2)
  d->_g85 = d->_g76 || (d->_g37 && !d->_cg97);
  803e70:	e0bffc17 	ldw	r2,-16(fp)
  803e74:	10802b03 	ldbu	r2,172(r2)
  803e78:	10803fcc 	andi	r2,r2,255
  803e7c:	1080201c 	xori	r2,r2,128
  803e80:	10bfe004 	addi	r2,r2,-128
  803e84:	10000c1e 	bne	r2,zero,803eb8 <logic+0x2e2c>
  803e88:	e0bffc17 	ldw	r2,-16(fp)
  803e8c:	10802383 	ldbu	r2,142(r2)
  803e90:	10803fcc 	andi	r2,r2,255
  803e94:	1080201c 	xori	r2,r2,128
  803e98:	10bfe004 	addi	r2,r2,-128
  803e9c:	10000826 	beq	r2,zero,803ec0 <logic+0x2e34>
  803ea0:	e0bffc17 	ldw	r2,-16(fp)
  803ea4:	10803a83 	ldbu	r2,234(r2)
  803ea8:	10803fcc 	andi	r2,r2,255
  803eac:	1080201c 	xori	r2,r2,128
  803eb0:	10bfe004 	addi	r2,r2,-128
  803eb4:	1000021e 	bne	r2,zero,803ec0 <logic+0x2e34>
  803eb8:	00800044 	movi	r2,1
  803ebc:	00000106 	br	803ec4 <logic+0x2e38>
  803ec0:	0005883a 	mov	r2,zero
  803ec4:	1007883a 	mov	r3,r2
  803ec8:	e0bffc17 	ldw	r2,-16(fp)
  803ecc:	10c02c45 	stb	r3,177(r2)
  d->_g97 = !d->_g85;
  803ed0:	e0bffc17 	ldw	r2,-16(fp)
  803ed4:	10802c43 	ldbu	r2,177(r2)
  803ed8:	10803fcc 	andi	r2,r2,255
  803edc:	1080201c 	xori	r2,r2,128
  803ee0:	10bfe004 	addi	r2,r2,-128
  803ee4:	1005003a 	cmpeq	r2,r2,zero
  803ee8:	1007883a 	mov	r3,r2
  803eec:	e0bffc17 	ldw	r2,-16(fp)
  803ef0:	10c02e85 	stb	r3,186(r2)
  d->_g82 = d->_g30 || d->_g35;
  803ef4:	e0bffc17 	ldw	r2,-16(fp)
  803ef8:	108022c3 	ldbu	r2,139(r2)
  803efc:	10803fcc 	andi	r2,r2,255
  803f00:	1080201c 	xori	r2,r2,128
  803f04:	10bfe004 	addi	r2,r2,-128
  803f08:	1000061e 	bne	r2,zero,803f24 <logic+0x2e98>
  803f0c:	e0bffc17 	ldw	r2,-16(fp)
  803f10:	10802343 	ldbu	r2,141(r2)
  803f14:	10803fcc 	andi	r2,r2,255
  803f18:	1080201c 	xori	r2,r2,128
  803f1c:	10bfe004 	addi	r2,r2,-128
  803f20:	10000226 	beq	r2,zero,803f2c <logic+0x2ea0>
  803f24:	00800044 	movi	r2,1
  803f28:	00000106 	br	803f30 <logic+0x2ea4>
  803f2c:	0005883a 	mov	r2,zero
  803f30:	1007883a 	mov	r3,r2
  803f34:	e0bffc17 	ldw	r2,-16(fp)
  803f38:	10c02bc5 	stb	r3,175(r2)
  d->_g95 = (d->_g86_e1 || d->_g89) && (d->_g97 || d->_g82) && (d->_g89 || d->_g82);
  803f3c:	e0bffc17 	ldw	r2,-16(fp)
  803f40:	10803dc3 	ldbu	r2,247(r2)
  803f44:	10803fcc 	andi	r2,r2,255
  803f48:	1080201c 	xori	r2,r2,128
  803f4c:	10bfe004 	addi	r2,r2,-128
  803f50:	1000061e 	bne	r2,zero,803f6c <logic+0x2ee0>
  803f54:	e0bffc17 	ldw	r2,-16(fp)
  803f58:	10802d43 	ldbu	r2,181(r2)
  803f5c:	10803fcc 	andi	r2,r2,255
  803f60:	1080201c 	xori	r2,r2,128
  803f64:	10bfe004 	addi	r2,r2,-128
  803f68:	10001a26 	beq	r2,zero,803fd4 <logic+0x2f48>
  803f6c:	e0bffc17 	ldw	r2,-16(fp)
  803f70:	10802e83 	ldbu	r2,186(r2)
  803f74:	10803fcc 	andi	r2,r2,255
  803f78:	1080201c 	xori	r2,r2,128
  803f7c:	10bfe004 	addi	r2,r2,-128
  803f80:	1000061e 	bne	r2,zero,803f9c <logic+0x2f10>
  803f84:	e0bffc17 	ldw	r2,-16(fp)
  803f88:	10802bc3 	ldbu	r2,175(r2)
  803f8c:	10803fcc 	andi	r2,r2,255
  803f90:	1080201c 	xori	r2,r2,128
  803f94:	10bfe004 	addi	r2,r2,-128
  803f98:	10000e26 	beq	r2,zero,803fd4 <logic+0x2f48>
  803f9c:	e0bffc17 	ldw	r2,-16(fp)
  803fa0:	10802d43 	ldbu	r2,181(r2)
  803fa4:	10803fcc 	andi	r2,r2,255
  803fa8:	1080201c 	xori	r2,r2,128
  803fac:	10bfe004 	addi	r2,r2,-128
  803fb0:	1000061e 	bne	r2,zero,803fcc <logic+0x2f40>
  803fb4:	e0bffc17 	ldw	r2,-16(fp)
  803fb8:	10802bc3 	ldbu	r2,175(r2)
  803fbc:	10803fcc 	andi	r2,r2,255
  803fc0:	1080201c 	xori	r2,r2,128
  803fc4:	10bfe004 	addi	r2,r2,-128
  803fc8:	10000226 	beq	r2,zero,803fd4 <logic+0x2f48>
  803fcc:	00800044 	movi	r2,1
  803fd0:	00000106 	br	803fd8 <logic+0x2f4c>
  803fd4:	0005883a 	mov	r2,zero
  803fd8:	1007883a 	mov	r3,r2
  803fdc:	e0bffc17 	ldw	r2,-16(fp)
  803fe0:	10c02e05 	stb	r3,184(r2)
  d->_cg99 = d->_PaceMaker_local__Atrig5;
  803fe4:	e0bffc17 	ldw	r2,-16(fp)
  803fe8:	10c01d43 	ldbu	r3,117(r2)
  803fec:	e0bffc17 	ldw	r2,-16(fp)
  803ff0:	10c03945 	stb	r3,229(r2)
  d->_g98 = d->_GO || (d->_g95 && d->_cg99) || (d->_g95 && d->_cg99);
  803ff4:	e0bffc17 	ldw	r2,-16(fp)
  803ff8:	108033c3 	ldbu	r2,207(r2)
  803ffc:	10803fcc 	andi	r2,r2,255
  804000:	1080201c 	xori	r2,r2,128
  804004:	10bfe004 	addi	r2,r2,-128
  804008:	1000181e 	bne	r2,zero,80406c <logic+0x2fe0>
  80400c:	e0bffc17 	ldw	r2,-16(fp)
  804010:	10802e03 	ldbu	r2,184(r2)
  804014:	10803fcc 	andi	r2,r2,255
  804018:	1080201c 	xori	r2,r2,128
  80401c:	10bfe004 	addi	r2,r2,-128
  804020:	10000626 	beq	r2,zero,80403c <logic+0x2fb0>
  804024:	e0bffc17 	ldw	r2,-16(fp)
  804028:	10803943 	ldbu	r2,229(r2)
  80402c:	10803fcc 	andi	r2,r2,255
  804030:	1080201c 	xori	r2,r2,128
  804034:	10bfe004 	addi	r2,r2,-128
  804038:	10000c1e 	bne	r2,zero,80406c <logic+0x2fe0>
  80403c:	e0bffc17 	ldw	r2,-16(fp)
  804040:	10802e03 	ldbu	r2,184(r2)
  804044:	10803fcc 	andi	r2,r2,255
  804048:	1080201c 	xori	r2,r2,128
  80404c:	10bfe004 	addi	r2,r2,-128
  804050:	10000826 	beq	r2,zero,804074 <logic+0x2fe8>
  804054:	e0bffc17 	ldw	r2,-16(fp)
  804058:	10803943 	ldbu	r2,229(r2)
  80405c:	10803fcc 	andi	r2,r2,255
  804060:	1080201c 	xori	r2,r2,128
  804064:	10bfe004 	addi	r2,r2,-128
  804068:	10000226 	beq	r2,zero,804074 <logic+0x2fe8>
  80406c:	00800044 	movi	r2,1
  804070:	00000106 	br	804078 <logic+0x2fec>
  804074:	0005883a 	mov	r2,zero
  804078:	1007883a 	mov	r3,r2
  80407c:	e0bffc17 	ldw	r2,-16(fp)
  804080:	10c02ec5 	stb	r3,187(r2)
  if (d->_g98) {
  804084:	e0bffc17 	ldw	r2,-16(fp)
  804088:	10802ec3 	ldbu	r2,187(r2)
  80408c:	10803fcc 	andi	r2,r2,255
  804090:	1080201c 	xori	r2,r2,128
  804094:	10bfe004 	addi	r2,r2,-128
  804098:	10000226 	beq	r2,zero,8040a4 <logic+0x3018>
    d->LRI = 0;
  80409c:	e0bffc17 	ldw	r2,-16(fp)
  8040a0:	10000805 	stb	zero,32(r2)
  }
  d->_g96 = d->_g98 || (d->_g75 && !d->_cg81);
  8040a4:	e0bffc17 	ldw	r2,-16(fp)
  8040a8:	10802ec3 	ldbu	r2,187(r2)
  8040ac:	10803fcc 	andi	r2,r2,255
  8040b0:	1080201c 	xori	r2,r2,128
  8040b4:	10bfe004 	addi	r2,r2,-128
  8040b8:	10000c1e 	bne	r2,zero,8040ec <logic+0x3060>
  8040bc:	e0bffc17 	ldw	r2,-16(fp)
  8040c0:	10802ac3 	ldbu	r2,171(r2)
  8040c4:	10803fcc 	andi	r2,r2,255
  8040c8:	1080201c 	xori	r2,r2,128
  8040cc:	10bfe004 	addi	r2,r2,-128
  8040d0:	10000826 	beq	r2,zero,8040f4 <logic+0x3068>
  8040d4:	e0bffc17 	ldw	r2,-16(fp)
  8040d8:	10803983 	ldbu	r2,230(r2)
  8040dc:	10803fcc 	andi	r2,r2,255
  8040e0:	1080201c 	xori	r2,r2,128
  8040e4:	10bfe004 	addi	r2,r2,-128
  8040e8:	1000021e 	bne	r2,zero,8040f4 <logic+0x3068>
  8040ec:	00800044 	movi	r2,1
  8040f0:	00000106 	br	8040f8 <logic+0x306c>
  8040f4:	0005883a 	mov	r2,zero
  8040f8:	1007883a 	mov	r3,r2
  8040fc:	e0bffc17 	ldw	r2,-16(fp)
  804100:	10c02e45 	stb	r3,185(r2)
  d->_g86 = d->_g118_e2 || (d->_g104 && !d->_cg104);
  804104:	e0bffc17 	ldw	r2,-16(fp)
  804108:	10803e83 	ldbu	r2,250(r2)
  80410c:	10803fcc 	andi	r2,r2,255
  804110:	1080201c 	xori	r2,r2,128
  804114:	10bfe004 	addi	r2,r2,-128
  804118:	10000c1e 	bne	r2,zero,80414c <logic+0x30c0>
  80411c:	e0bffc17 	ldw	r2,-16(fp)
  804120:	10802f83 	ldbu	r2,190(r2)
  804124:	10803fcc 	andi	r2,r2,255
  804128:	1080201c 	xori	r2,r2,128
  80412c:	10bfe004 	addi	r2,r2,-128
  804130:	10000826 	beq	r2,zero,804154 <logic+0x30c8>
  804134:	e0bffc17 	ldw	r2,-16(fp)
  804138:	10803b03 	ldbu	r2,236(r2)
  80413c:	10803fcc 	andi	r2,r2,255
  804140:	1080201c 	xori	r2,r2,128
  804144:	10bfe004 	addi	r2,r2,-128
  804148:	1000021e 	bne	r2,zero,804154 <logic+0x30c8>
  80414c:	00800044 	movi	r2,1
  804150:	00000106 	br	804158 <logic+0x30cc>
  804154:	0005883a 	mov	r2,zero
  804158:	1007883a 	mov	r3,r2
  80415c:	e0bffc17 	ldw	r2,-16(fp)
  804160:	10c02c85 	stb	r3,178(r2)
  d->_g86_e1 = d->_GO || d->_g109;
  804164:	e0bffc17 	ldw	r2,-16(fp)
  804168:	108033c3 	ldbu	r2,207(r2)
  80416c:	10803fcc 	andi	r2,r2,255
  804170:	1080201c 	xori	r2,r2,128
  804174:	10bfe004 	addi	r2,r2,-128
  804178:	1000061e 	bne	r2,zero,804194 <logic+0x3108>
  80417c:	e0bffc17 	ldw	r2,-16(fp)
  804180:	10803083 	ldbu	r2,194(r2)
  804184:	10803fcc 	andi	r2,r2,255
  804188:	1080201c 	xori	r2,r2,128
  80418c:	10bfe004 	addi	r2,r2,-128
  804190:	10000226 	beq	r2,zero,80419c <logic+0x3110>
  804194:	00800044 	movi	r2,1
  804198:	00000106 	br	8041a0 <logic+0x3114>
  80419c:	0005883a 	mov	r2,zero
  8041a0:	1007883a 	mov	r3,r2
  8041a4:	e0bffc17 	ldw	r2,-16(fp)
  8041a8:	10c03dc5 	stb	r3,247(r2)
  d->_g96_e2 = d->_GO || d->_g20_e2;
  8041ac:	e0bffc17 	ldw	r2,-16(fp)
  8041b0:	108033c3 	ldbu	r2,207(r2)
  8041b4:	10803fcc 	andi	r2,r2,255
  8041b8:	1080201c 	xori	r2,r2,128
  8041bc:	10bfe004 	addi	r2,r2,-128
  8041c0:	1000061e 	bne	r2,zero,8041dc <logic+0x3150>
  8041c4:	e0bffc17 	ldw	r2,-16(fp)
  8041c8:	10803c83 	ldbu	r2,242(r2)
  8041cc:	10803fcc 	andi	r2,r2,255
  8041d0:	1080201c 	xori	r2,r2,128
  8041d4:	10bfe004 	addi	r2,r2,-128
  8041d8:	10000226 	beq	r2,zero,8041e4 <logic+0x3158>
  8041dc:	00800044 	movi	r2,1
  8041e0:	00000106 	br	8041e8 <logic+0x315c>
  8041e4:	0005883a 	mov	r2,zero
  8041e8:	1007883a 	mov	r3,r2
  8041ec:	e0bffc17 	ldw	r2,-16(fp)
  8041f0:	10c03e05 	stb	r3,248(r2)
  d->_g99 = d->_GO || d->_g135;
  8041f4:	e0bffc17 	ldw	r2,-16(fp)
  8041f8:	108033c3 	ldbu	r2,207(r2)
  8041fc:	10803fcc 	andi	r2,r2,255
  804200:	1080201c 	xori	r2,r2,128
  804204:	10bfe004 	addi	r2,r2,-128
  804208:	1000061e 	bne	r2,zero,804224 <logic+0x3198>
  80420c:	e0bffc17 	ldw	r2,-16(fp)
  804210:	108032c3 	ldbu	r2,203(r2)
  804214:	10803fcc 	andi	r2,r2,255
  804218:	1080201c 	xori	r2,r2,128
  80421c:	10bfe004 	addi	r2,r2,-128
  804220:	10000226 	beq	r2,zero,80422c <logic+0x31a0>
  804224:	00800044 	movi	r2,1
  804228:	00000106 	br	804230 <logic+0x31a4>
  80422c:	0005883a 	mov	r2,zero
  804230:	1007883a 	mov	r3,r2
  804234:	e0bffc17 	ldw	r2,-16(fp)
  804238:	10c02f05 	stb	r3,188(r2)
  d->_g81 = d->_GO || d->_g139;
  80423c:	e0bffc17 	ldw	r2,-16(fp)
  804240:	108033c3 	ldbu	r2,207(r2)
  804244:	10803fcc 	andi	r2,r2,255
  804248:	1080201c 	xori	r2,r2,128
  80424c:	10bfe004 	addi	r2,r2,-128
  804250:	1000061e 	bne	r2,zero,80426c <logic+0x31e0>
  804254:	e0bffc17 	ldw	r2,-16(fp)
  804258:	10803303 	ldbu	r2,204(r2)
  80425c:	10803fcc 	andi	r2,r2,255
  804260:	1080201c 	xori	r2,r2,128
  804264:	10bfe004 	addi	r2,r2,-128
  804268:	10000226 	beq	r2,zero,804274 <logic+0x31e8>
  80426c:	00800044 	movi	r2,1
  804270:	00000106 	br	804278 <logic+0x31ec>
  804274:	0005883a 	mov	r2,zero
  804278:	1007883a 	mov	r3,r2
  80427c:	e0bffc17 	ldw	r2,-16(fp)
  804280:	10c02b85 	stb	r3,174(r2)
  d->_g79 = d->_GO || d->_g32;
  804284:	e0bffc17 	ldw	r2,-16(fp)
  804288:	108033c3 	ldbu	r2,207(r2)
  80428c:	10803fcc 	andi	r2,r2,255
  804290:	1080201c 	xori	r2,r2,128
  804294:	10bfe004 	addi	r2,r2,-128
  804298:	1000061e 	bne	r2,zero,8042b4 <logic+0x3228>
  80429c:	e0bffc17 	ldw	r2,-16(fp)
  8042a0:	10802303 	ldbu	r2,140(r2)
  8042a4:	10803fcc 	andi	r2,r2,255
  8042a8:	1080201c 	xori	r2,r2,128
  8042ac:	10bfe004 	addi	r2,r2,-128
  8042b0:	10000226 	beq	r2,zero,8042bc <logic+0x3230>
  8042b4:	00800044 	movi	r2,1
  8042b8:	00000106 	br	8042c0 <logic+0x3234>
  8042bc:	0005883a 	mov	r2,zero
  8042c0:	1007883a 	mov	r3,r2
  8042c4:	e0bffc17 	ldw	r2,-16(fp)
  8042c8:	10c02b45 	stb	r3,173(r2)
  d->_g102 = d->_GO || d->_g147;
  8042cc:	e0bffc17 	ldw	r2,-16(fp)
  8042d0:	108033c3 	ldbu	r2,207(r2)
  8042d4:	10803fcc 	andi	r2,r2,255
  8042d8:	1080201c 	xori	r2,r2,128
  8042dc:	10bfe004 	addi	r2,r2,-128
  8042e0:	1000061e 	bne	r2,zero,8042fc <logic+0x3270>
  8042e4:	e0bffc17 	ldw	r2,-16(fp)
  8042e8:	10803343 	ldbu	r2,205(r2)
  8042ec:	10803fcc 	andi	r2,r2,255
  8042f0:	1080201c 	xori	r2,r2,128
  8042f4:	10bfe004 	addi	r2,r2,-128
  8042f8:	10000226 	beq	r2,zero,804304 <logic+0x3278>
  8042fc:	00800044 	movi	r2,1
  804300:	00000106 	br	804308 <logic+0x327c>
  804304:	0005883a 	mov	r2,zero
  804308:	1007883a 	mov	r3,r2
  80430c:	e0bffc17 	ldw	r2,-16(fp)
  804310:	10c02f45 	stb	r3,189(r2)
  d->_reg_AVI_event = d->AVI_event;
  804314:	e0bffc17 	ldw	r2,-16(fp)
  804318:	10c01983 	ldbu	r3,102(r2)
  80431c:	e0bffc17 	ldw	r2,-16(fp)
  804320:	10c01b05 	stb	r3,108(r2)
  if (d->_g109_e1) {
  804324:	e0bffc17 	ldw	r2,-16(fp)
  804328:	10803e43 	ldbu	r2,249(r2)
  80432c:	10803fcc 	andi	r2,r2,255
  804330:	1080201c 	xori	r2,r2,128
  804334:	10bfe004 	addi	r2,r2,-128
  804338:	10000426 	beq	r2,zero,80434c <logic+0x32c0>
    d->_reg_LRI = d->LRI;
  80433c:	e0bffc17 	ldw	r2,-16(fp)
  804340:	10c00803 	ldbu	r3,32(r2)
  804344:	e0bffc17 	ldw	r2,-16(fp)
  804348:	10c01b85 	stb	r3,110(r2)
  }
}
  80434c:	0001883a 	nop
  804350:	e6fffd04 	addi	sp,fp,-12
  804354:	dfc00417 	ldw	ra,16(sp)
  804358:	df000317 	ldw	fp,12(sp)
  80435c:	dc800217 	ldw	r18,8(sp)
  804360:	dc400117 	ldw	r17,4(sp)
  804364:	dc000017 	ldw	r16,0(sp)
  804368:	dec00504 	addi	sp,sp,20
  80436c:	f800283a 	ret

00804370 <reset>:

void reset(TickData* d) {
  804370:	defffe04 	addi	sp,sp,-8
  804374:	df000115 	stw	fp,4(sp)
  804378:	df000104 	addi	fp,sp,4
  80437c:	e13fff15 	stw	r4,-4(fp)
  d->_GO = 1;
  804380:	e0bfff17 	ldw	r2,-4(fp)
  804384:	00c00044 	movi	r3,1
  804388:	10c033c5 	stb	r3,207(r2)
  d->_TERM = 0;
  80438c:	e0bfff17 	ldw	r2,-4(fp)
  804390:	10003ec5 	stb	zero,251(r2)
  d->AVI_CON = AVI_VALUE;
  804394:	e0bfff17 	ldw	r2,-4(fp)
  804398:	00c04b04 	movi	r3,300
  80439c:	10c00115 	stw	r3,4(r2)
  d->AEI_CON = AEI_VALUE;
  8043a0:	e0bfff17 	ldw	r2,-4(fp)
  8043a4:	00c0c804 	movi	r3,800
  8043a8:	10c00215 	stw	r3,8(r2)
  d->PVARP_CON = PVARP_VALUE;
  8043ac:	e0bfff17 	ldw	r2,-4(fp)
  8043b0:	00c00c84 	movi	r3,50
  8043b4:	10c00315 	stw	r3,12(r2)
  d->VRP_CON = VRP_VALUE;
  8043b8:	e0bfff17 	ldw	r2,-4(fp)
  8043bc:	00c02584 	movi	r3,150
  8043c0:	10c00415 	stw	r3,16(r2)
  d->LRI_CON = LRI_VALUE;
  8043c4:	e0bfff17 	ldw	r2,-4(fp)
  8043c8:	00c12c04 	movi	r3,1200
  8043cc:	10c00515 	stw	r3,20(r2)
  d->URI_CON = URI_VALUE;
  8043d0:	e0bfff17 	ldw	r2,-4(fp)
  8043d4:	00c0e104 	movi	r3,900
  8043d8:	10c00615 	stw	r3,24(r2)
  d->AVI = 0;
  8043dc:	e0bfff17 	ldw	r2,-4(fp)
  8043e0:	10000705 	stb	zero,28(r2)
  d->PVARP = 0;
  8043e4:	e0bfff17 	ldw	r2,-4(fp)
  8043e8:	10000745 	stb	zero,29(r2)
  d->VRP = 0;
  8043ec:	e0bfff17 	ldw	r2,-4(fp)
  8043f0:	10000785 	stb	zero,30(r2)
  d->AEI = 0;
  8043f4:	e0bfff17 	ldw	r2,-4(fp)
  8043f8:	100007c5 	stb	zero,31(r2)
  d->LRI = 0;
  8043fc:	e0bfff17 	ldw	r2,-4(fp)
  804400:	10000805 	stb	zero,32(r2)
  d->URI = 0;
  804404:	e0bfff17 	ldw	r2,-4(fp)
  804408:	10000845 	stb	zero,33(r2)
  d->_region0_rAVI_AVI_clock = 0;
  80440c:	e0bfff17 	ldw	r2,-4(fp)
  804410:	10000915 	stw	zero,36(r2)
  804414:	10000a15 	stw	zero,40(r2)
  d->_region1_rPVARP_PVARP_clock = 0;
  804418:	e0bfff17 	ldw	r2,-4(fp)
  80441c:	10000b15 	stw	zero,44(r2)
  804420:	10000c15 	stw	zero,48(r2)
  d->_region2_rVRP_VRP_clock = 0;
  804424:	e0bfff17 	ldw	r2,-4(fp)
  804428:	10000d15 	stw	zero,52(r2)
  80442c:	10000e15 	stw	zero,56(r2)
  d->_region3_rAEI_AEI_clock = 0;
  804430:	e0bfff17 	ldw	r2,-4(fp)
  804434:	10000f15 	stw	zero,60(r2)
  804438:	10001015 	stw	zero,64(r2)
  d->_region4_rLRI_LRI_clock = 0;
  80443c:	e0bfff17 	ldw	r2,-4(fp)
  804440:	10001115 	stw	zero,68(r2)
  804444:	10001215 	stw	zero,72(r2)
  d->_region5_rURI_URI_clock = 0;
  804448:	e0bfff17 	ldw	r2,-4(fp)
  80444c:	10001315 	stw	zero,76(r2)
  804450:	10001415 	stw	zero,80(r2)
  d->deltaT = 0.0;
  804454:	e0bfff17 	ldw	r2,-4(fp)
  804458:	10001515 	stw	zero,84(r2)
  80445c:	10001615 	stw	zero,88(r2)
  d->sleepT = 0.0;
  804460:	e0bfff17 	ldw	r2,-4(fp)
  804464:	10001715 	stw	zero,92(r2)
  804468:	10001815 	stw	zero,96(r2)
  d->AP = 0;
  80446c:	e0bfff17 	ldw	r2,-4(fp)
  804470:	10001905 	stb	zero,100(r2)
  d->VP = 0;
  804474:	e0bfff17 	ldw	r2,-4(fp)
  804478:	10001945 	stb	zero,101(r2)
  d->AVI_event = 0;
  80447c:	e0bfff17 	ldw	r2,-4(fp)
  804480:	10001985 	stb	zero,102(r2)
  d->PVARP_event = 0;
  804484:	e0bfff17 	ldw	r2,-4(fp)
  804488:	100019c5 	stb	zero,103(r2)
  d->VRP_event = 0;
  80448c:	e0bfff17 	ldw	r2,-4(fp)
  804490:	10001a05 	stb	zero,104(r2)
  d->AEI_event = 0;
  804494:	e0bfff17 	ldw	r2,-4(fp)
  804498:	10001a45 	stb	zero,105(r2)
  d->LRI_event = 0;
  80449c:	e0bfff17 	ldw	r2,-4(fp)
  8044a0:	10001a85 	stb	zero,106(r2)
  d->URI_event = 0;
  8044a4:	e0bfff17 	ldw	r2,-4(fp)
  8044a8:	10001ac5 	stb	zero,107(r2)
  d->_reg_AVI_event = 0;
  8044ac:	e0bfff17 	ldw	r2,-4(fp)
  8044b0:	10001b05 	stb	zero,108(r2)
  d->_reg_LRI = 0;
  8044b4:	e0bfff17 	ldw	r2,-4(fp)
  8044b8:	10001b85 	stb	zero,110(r2)
  d->_pg86 = 0;
  8044bc:	e0bfff17 	ldw	r2,-4(fp)
  8044c0:	10003f05 	stb	zero,252(r2)
  d->_pg102 = 0;
  8044c4:	e0bfff17 	ldw	r2,-4(fp)
  8044c8:	10003f45 	stb	zero,253(r2)
  d->_pg108 = 0;
  8044cc:	e0bfff17 	ldw	r2,-4(fp)
  8044d0:	10003f85 	stb	zero,254(r2)
  d->_pg110 = 0;
  8044d4:	e0bfff17 	ldw	r2,-4(fp)
  8044d8:	10003fc5 	stb	zero,255(r2)
  d->_pg113 = 0;
  8044dc:	e0bfff17 	ldw	r2,-4(fp)
  8044e0:	10004005 	stb	zero,256(r2)
  d->_pg86_e1 = 0;
  8044e4:	e0bfff17 	ldw	r2,-4(fp)
  8044e8:	10004045 	stb	zero,257(r2)
  d->_pg109_e1 = 0;
  8044ec:	e0bfff17 	ldw	r2,-4(fp)
  8044f0:	10004085 	stb	zero,258(r2)
  d->_pg13 = 0;
  8044f4:	e0bfff17 	ldw	r2,-4(fp)
  8044f8:	100040c5 	stb	zero,259(r2)
  d->_pg24 = 0;
  8044fc:	e0bfff17 	ldw	r2,-4(fp)
  804500:	10004105 	stb	zero,260(r2)
  d->_pg99 = 0;
  804504:	e0bfff17 	ldw	r2,-4(fp)
  804508:	10004145 	stb	zero,261(r2)
  d->_pg41 = 0;
  80450c:	e0bfff17 	ldw	r2,-4(fp)
  804510:	10004185 	stb	zero,262(r2)
  d->_pg43 = 0;
  804514:	e0bfff17 	ldw	r2,-4(fp)
  804518:	100041c5 	stb	zero,263(r2)
  d->_pg46 = 0;
  80451c:	e0bfff17 	ldw	r2,-4(fp)
  804520:	10004205 	stb	zero,264(r2)
  d->_pg10 = 0;
  804524:	e0bfff17 	ldw	r2,-4(fp)
  804528:	10004245 	stb	zero,265(r2)
  d->_pg23 = 0;
  80452c:	e0bfff17 	ldw	r2,-4(fp)
  804530:	10004285 	stb	zero,266(r2)
  d->_pg81 = 0;
  804534:	e0bfff17 	ldw	r2,-4(fp)
  804538:	100042c5 	stb	zero,267(r2)
  d->_pg61 = 0;
  80453c:	e0bfff17 	ldw	r2,-4(fp)
  804540:	10004305 	stb	zero,268(r2)
  d->_pg27 = 0;
  804544:	e0bfff17 	ldw	r2,-4(fp)
  804548:	10004345 	stb	zero,269(r2)
  d->_pg63 = 0;
  80454c:	e0bfff17 	ldw	r2,-4(fp)
  804550:	10004385 	stb	zero,270(r2)
  d->_pg66 = 0;
  804554:	e0bfff17 	ldw	r2,-4(fp)
  804558:	100043c5 	stb	zero,271(r2)
  d->_pg20 = 0;
  80455c:	e0bfff17 	ldw	r2,-4(fp)
  804560:	10004405 	stb	zero,272(r2)
  d->_pg11 = 0;
  804564:	e0bfff17 	ldw	r2,-4(fp)
  804568:	10004445 	stb	zero,273(r2)
  d->_pg12 = 0;
  80456c:	e0bfff17 	ldw	r2,-4(fp)
  804570:	10004485 	stb	zero,274(r2)
  d->_pg96_e2 = 0;
  804574:	e0bfff17 	ldw	r2,-4(fp)
  804578:	100044c5 	stb	zero,275(r2)
  d->_pg85 = 0;
  80457c:	e0bfff17 	ldw	r2,-4(fp)
  804580:	10004505 	stb	zero,276(r2)
  d->_pg79 = 0;
  804584:	e0bfff17 	ldw	r2,-4(fp)
  804588:	10004545 	stb	zero,277(r2)
  d->_pg96 = 0;
  80458c:	e0bfff17 	ldw	r2,-4(fp)
  804590:	10004585 	stb	zero,278(r2)
  d->_pg87 = 0;
  804594:	e0bfff17 	ldw	r2,-4(fp)
  804598:	100045c5 	stb	zero,279(r2)
  d->_pg88 = 0;
  80459c:	e0bfff17 	ldw	r2,-4(fp)
  8045a0:	10004605 	stb	zero,280(r2)
}
  8045a4:	0001883a 	nop
  8045a8:	e037883a 	mov	sp,fp
  8045ac:	df000017 	ldw	fp,0(sp)
  8045b0:	dec00104 	addi	sp,sp,4
  8045b4:	f800283a 	ret

008045b8 <tick>:

void tick(TickData* d) {
  8045b8:	defffd04 	addi	sp,sp,-12
  8045bc:	dfc00215 	stw	ra,8(sp)
  8045c0:	df000115 	stw	fp,4(sp)
  8045c4:	df000104 	addi	fp,sp,4
  8045c8:	e13fff15 	stw	r4,-4(fp)
  logic(d);
  8045cc:	e13fff17 	ldw	r4,-4(fp)
  8045d0:	080108c0 	call	80108c <logic>

  d->_pg86 = d->_g86;
  8045d4:	e0bfff17 	ldw	r2,-4(fp)
  8045d8:	10c02c83 	ldbu	r3,178(r2)
  8045dc:	e0bfff17 	ldw	r2,-4(fp)
  8045e0:	10c03f05 	stb	r3,252(r2)
  d->_pg102 = d->_g102;
  8045e4:	e0bfff17 	ldw	r2,-4(fp)
  8045e8:	10c02f43 	ldbu	r3,189(r2)
  8045ec:	e0bfff17 	ldw	r2,-4(fp)
  8045f0:	10c03f45 	stb	r3,253(r2)
  d->_pg108 = d->_g108;
  8045f4:	e0bfff17 	ldw	r2,-4(fp)
  8045f8:	10c03043 	ldbu	r3,193(r2)
  8045fc:	e0bfff17 	ldw	r2,-4(fp)
  804600:	10c03f85 	stb	r3,254(r2)
  d->_pg110 = d->_g110;
  804604:	e0bfff17 	ldw	r2,-4(fp)
  804608:	10c030c3 	ldbu	r3,195(r2)
  80460c:	e0bfff17 	ldw	r2,-4(fp)
  804610:	10c03fc5 	stb	r3,255(r2)
  d->_pg113 = d->_g113;
  804614:	e0bfff17 	ldw	r2,-4(fp)
  804618:	10c03183 	ldbu	r3,198(r2)
  80461c:	e0bfff17 	ldw	r2,-4(fp)
  804620:	10c04005 	stb	r3,256(r2)
  d->_pg86_e1 = d->_g86_e1;
  804624:	e0bfff17 	ldw	r2,-4(fp)
  804628:	10c03dc3 	ldbu	r3,247(r2)
  80462c:	e0bfff17 	ldw	r2,-4(fp)
  804630:	10c04045 	stb	r3,257(r2)
  d->_pg109_e1 = d->_g109_e1;
  804634:	e0bfff17 	ldw	r2,-4(fp)
  804638:	10c03e43 	ldbu	r3,249(r2)
  80463c:	e0bfff17 	ldw	r2,-4(fp)
  804640:	10c04085 	stb	r3,258(r2)
  d->_pg13 = d->_g13;
  804644:	e0bfff17 	ldw	r2,-4(fp)
  804648:	10c02003 	ldbu	r3,128(r2)
  80464c:	e0bfff17 	ldw	r2,-4(fp)
  804650:	10c040c5 	stb	r3,259(r2)
  d->_pg24 = d->_g24;
  804654:	e0bfff17 	ldw	r2,-4(fp)
  804658:	10c02203 	ldbu	r3,136(r2)
  80465c:	e0bfff17 	ldw	r2,-4(fp)
  804660:	10c04105 	stb	r3,260(r2)
  d->_pg99 = d->_g99;
  804664:	e0bfff17 	ldw	r2,-4(fp)
  804668:	10c02f03 	ldbu	r3,188(r2)
  80466c:	e0bfff17 	ldw	r2,-4(fp)
  804670:	10c04145 	stb	r3,261(r2)
  d->_pg41 = d->_g41;
  804674:	e0bfff17 	ldw	r2,-4(fp)
  804678:	10c02443 	ldbu	r3,145(r2)
  80467c:	e0bfff17 	ldw	r2,-4(fp)
  804680:	10c04185 	stb	r3,262(r2)
  d->_pg43 = d->_g43;
  804684:	e0bfff17 	ldw	r2,-4(fp)
  804688:	10c024c3 	ldbu	r3,147(r2)
  80468c:	e0bfff17 	ldw	r2,-4(fp)
  804690:	10c041c5 	stb	r3,263(r2)
  d->_pg46 = d->_g46;
  804694:	e0bfff17 	ldw	r2,-4(fp)
  804698:	10c02583 	ldbu	r3,150(r2)
  80469c:	e0bfff17 	ldw	r2,-4(fp)
  8046a0:	10c04205 	stb	r3,264(r2)
  d->_pg10 = d->_g10;
  8046a4:	e0bfff17 	ldw	r2,-4(fp)
  8046a8:	10c01f43 	ldbu	r3,125(r2)
  8046ac:	e0bfff17 	ldw	r2,-4(fp)
  8046b0:	10c04245 	stb	r3,265(r2)
  d->_pg23 = d->_g23;
  8046b4:	e0bfff17 	ldw	r2,-4(fp)
  8046b8:	10c021c3 	ldbu	r3,135(r2)
  8046bc:	e0bfff17 	ldw	r2,-4(fp)
  8046c0:	10c04285 	stb	r3,266(r2)
  d->_pg81 = d->_g81;
  8046c4:	e0bfff17 	ldw	r2,-4(fp)
  8046c8:	10c02b83 	ldbu	r3,174(r2)
  8046cc:	e0bfff17 	ldw	r2,-4(fp)
  8046d0:	10c042c5 	stb	r3,267(r2)
  d->_pg61 = d->_g61;
  8046d4:	e0bfff17 	ldw	r2,-4(fp)
  8046d8:	10c027c3 	ldbu	r3,159(r2)
  8046dc:	e0bfff17 	ldw	r2,-4(fp)
  8046e0:	10c04305 	stb	r3,268(r2)
  d->_pg27 = d->_g27;
  8046e4:	e0bfff17 	ldw	r2,-4(fp)
  8046e8:	10c02243 	ldbu	r3,137(r2)
  8046ec:	e0bfff17 	ldw	r2,-4(fp)
  8046f0:	10c04345 	stb	r3,269(r2)
  d->_pg63 = d->_g63;
  8046f4:	e0bfff17 	ldw	r2,-4(fp)
  8046f8:	10c02843 	ldbu	r3,161(r2)
  8046fc:	e0bfff17 	ldw	r2,-4(fp)
  804700:	10c04385 	stb	r3,270(r2)
  d->_pg66 = d->_g66;
  804704:	e0bfff17 	ldw	r2,-4(fp)
  804708:	10c02903 	ldbu	r3,164(r2)
  80470c:	e0bfff17 	ldw	r2,-4(fp)
  804710:	10c043c5 	stb	r3,271(r2)
  d->_pg20 = d->_g20;
  804714:	e0bfff17 	ldw	r2,-4(fp)
  804718:	10c02103 	ldbu	r3,132(r2)
  80471c:	e0bfff17 	ldw	r2,-4(fp)
  804720:	10c04405 	stb	r3,272(r2)
  d->_pg11 = d->_g11;
  804724:	e0bfff17 	ldw	r2,-4(fp)
  804728:	10c01f83 	ldbu	r3,126(r2)
  80472c:	e0bfff17 	ldw	r2,-4(fp)
  804730:	10c04445 	stb	r3,273(r2)
  d->_pg12 = d->_g12;
  804734:	e0bfff17 	ldw	r2,-4(fp)
  804738:	10c01fc3 	ldbu	r3,127(r2)
  80473c:	e0bfff17 	ldw	r2,-4(fp)
  804740:	10c04485 	stb	r3,274(r2)
  d->_pg96_e2 = d->_g96_e2;
  804744:	e0bfff17 	ldw	r2,-4(fp)
  804748:	10c03e03 	ldbu	r3,248(r2)
  80474c:	e0bfff17 	ldw	r2,-4(fp)
  804750:	10c044c5 	stb	r3,275(r2)
  d->_pg85 = d->_g85;
  804754:	e0bfff17 	ldw	r2,-4(fp)
  804758:	10c02c43 	ldbu	r3,177(r2)
  80475c:	e0bfff17 	ldw	r2,-4(fp)
  804760:	10c04505 	stb	r3,276(r2)
  d->_pg79 = d->_g79;
  804764:	e0bfff17 	ldw	r2,-4(fp)
  804768:	10c02b43 	ldbu	r3,173(r2)
  80476c:	e0bfff17 	ldw	r2,-4(fp)
  804770:	10c04545 	stb	r3,277(r2)
  d->_pg96 = d->_g96;
  804774:	e0bfff17 	ldw	r2,-4(fp)
  804778:	10c02e43 	ldbu	r3,185(r2)
  80477c:	e0bfff17 	ldw	r2,-4(fp)
  804780:	10c04585 	stb	r3,278(r2)
  d->_pg87 = d->_g87;
  804784:	e0bfff17 	ldw	r2,-4(fp)
  804788:	10c02cc3 	ldbu	r3,179(r2)
  80478c:	e0bfff17 	ldw	r2,-4(fp)
  804790:	10c045c5 	stb	r3,279(r2)
  d->_pg88 = d->_g88;
  804794:	e0bfff17 	ldw	r2,-4(fp)
  804798:	10c02d03 	ldbu	r3,180(r2)
  80479c:	e0bfff17 	ldw	r2,-4(fp)
  8047a0:	10c04605 	stb	r3,280(r2)
  d->_GO = 0;
  8047a4:	e0bfff17 	ldw	r2,-4(fp)
  8047a8:	100033c5 	stb	zero,207(r2)
}
  8047ac:	0001883a 	nop
  8047b0:	e037883a 	mov	sp,fp
  8047b4:	dfc00117 	ldw	ra,4(sp)
  8047b8:	df000017 	ldw	fp,0(sp)
  8047bc:	dec00204 	addi	sp,sp,8
  8047c0:	f800283a 	ret

008047c4 <__adddf3>:
  8047c4:	02c00434 	movhi	r11,16
  8047c8:	5affffc4 	addi	r11,r11,-1
  8047cc:	2806d7fa 	srli	r3,r5,31
  8047d0:	2ad4703a 	and	r10,r5,r11
  8047d4:	3ad2703a 	and	r9,r7,r11
  8047d8:	3804d53a 	srli	r2,r7,20
  8047dc:	3018d77a 	srli	r12,r6,29
  8047e0:	280ad53a 	srli	r5,r5,20
  8047e4:	501490fa 	slli	r10,r10,3
  8047e8:	2010d77a 	srli	r8,r4,29
  8047ec:	481290fa 	slli	r9,r9,3
  8047f0:	380ed7fa 	srli	r7,r7,31
  8047f4:	defffb04 	addi	sp,sp,-20
  8047f8:	dc800215 	stw	r18,8(sp)
  8047fc:	dc400115 	stw	r17,4(sp)
  804800:	dc000015 	stw	r16,0(sp)
  804804:	dfc00415 	stw	ra,16(sp)
  804808:	dcc00315 	stw	r19,12(sp)
  80480c:	1c803fcc 	andi	r18,r3,255
  804810:	2c01ffcc 	andi	r16,r5,2047
  804814:	5210b03a 	or	r8,r10,r8
  804818:	202290fa 	slli	r17,r4,3
  80481c:	1081ffcc 	andi	r2,r2,2047
  804820:	4b12b03a 	or	r9,r9,r12
  804824:	300c90fa 	slli	r6,r6,3
  804828:	91c07526 	beq	r18,r7,804a00 <__adddf3+0x23c>
  80482c:	8087c83a 	sub	r3,r16,r2
  804830:	00c0ab0e 	bge	zero,r3,804ae0 <__adddf3+0x31c>
  804834:	10002a1e 	bne	r2,zero,8048e0 <__adddf3+0x11c>
  804838:	4984b03a 	or	r2,r9,r6
  80483c:	1000961e 	bne	r2,zero,804a98 <__adddf3+0x2d4>
  804840:	888001cc 	andi	r2,r17,7
  804844:	10000726 	beq	r2,zero,804864 <__adddf3+0xa0>
  804848:	888003cc 	andi	r2,r17,15
  80484c:	00c00104 	movi	r3,4
  804850:	10c00426 	beq	r2,r3,804864 <__adddf3+0xa0>
  804854:	88c7883a 	add	r3,r17,r3
  804858:	1c63803a 	cmpltu	r17,r3,r17
  80485c:	4451883a 	add	r8,r8,r17
  804860:	1823883a 	mov	r17,r3
  804864:	4080202c 	andhi	r2,r8,128
  804868:	10005926 	beq	r2,zero,8049d0 <__adddf3+0x20c>
  80486c:	84000044 	addi	r16,r16,1
  804870:	0081ffc4 	movi	r2,2047
  804874:	8080ba26 	beq	r16,r2,804b60 <__adddf3+0x39c>
  804878:	00bfe034 	movhi	r2,65408
  80487c:	10bfffc4 	addi	r2,r2,-1
  804880:	4090703a 	and	r8,r8,r2
  804884:	4004977a 	slli	r2,r8,29
  804888:	4010927a 	slli	r8,r8,9
  80488c:	8822d0fa 	srli	r17,r17,3
  804890:	8401ffcc 	andi	r16,r16,2047
  804894:	4010d33a 	srli	r8,r8,12
  804898:	9007883a 	mov	r3,r18
  80489c:	1444b03a 	or	r2,r2,r17
  8048a0:	8401ffcc 	andi	r16,r16,2047
  8048a4:	8020953a 	slli	r16,r16,20
  8048a8:	18c03fcc 	andi	r3,r3,255
  8048ac:	01000434 	movhi	r4,16
  8048b0:	213fffc4 	addi	r4,r4,-1
  8048b4:	180697fa 	slli	r3,r3,31
  8048b8:	4110703a 	and	r8,r8,r4
  8048bc:	4410b03a 	or	r8,r8,r16
  8048c0:	40c6b03a 	or	r3,r8,r3
  8048c4:	dfc00417 	ldw	ra,16(sp)
  8048c8:	dcc00317 	ldw	r19,12(sp)
  8048cc:	dc800217 	ldw	r18,8(sp)
  8048d0:	dc400117 	ldw	r17,4(sp)
  8048d4:	dc000017 	ldw	r16,0(sp)
  8048d8:	dec00504 	addi	sp,sp,20
  8048dc:	f800283a 	ret
  8048e0:	0081ffc4 	movi	r2,2047
  8048e4:	80bfd626 	beq	r16,r2,804840 <__alt_mem_onchip_mem+0xff7fc840>
  8048e8:	4a402034 	orhi	r9,r9,128
  8048ec:	00800e04 	movi	r2,56
  8048f0:	10c09f16 	blt	r2,r3,804b70 <__adddf3+0x3ac>
  8048f4:	008007c4 	movi	r2,31
  8048f8:	10c0c216 	blt	r2,r3,804c04 <__adddf3+0x440>
  8048fc:	00800804 	movi	r2,32
  804900:	10c5c83a 	sub	r2,r2,r3
  804904:	488a983a 	sll	r5,r9,r2
  804908:	30c8d83a 	srl	r4,r6,r3
  80490c:	3084983a 	sll	r2,r6,r2
  804910:	48c6d83a 	srl	r3,r9,r3
  804914:	290cb03a 	or	r6,r5,r4
  804918:	1004c03a 	cmpne	r2,r2,zero
  80491c:	308cb03a 	or	r6,r6,r2
  804920:	898dc83a 	sub	r6,r17,r6
  804924:	89a3803a 	cmpltu	r17,r17,r6
  804928:	40d1c83a 	sub	r8,r8,r3
  80492c:	4451c83a 	sub	r8,r8,r17
  804930:	3023883a 	mov	r17,r6
  804934:	4080202c 	andhi	r2,r8,128
  804938:	10002326 	beq	r2,zero,8049c8 <__adddf3+0x204>
  80493c:	04c02034 	movhi	r19,128
  804940:	9cffffc4 	addi	r19,r19,-1
  804944:	44e6703a 	and	r19,r8,r19
  804948:	98007626 	beq	r19,zero,804b24 <__adddf3+0x360>
  80494c:	9809883a 	mov	r4,r19
  804950:	0805c180 	call	805c18 <__clzsi2>
  804954:	10fffe04 	addi	r3,r2,-8
  804958:	010007c4 	movi	r4,31
  80495c:	20c07716 	blt	r4,r3,804b3c <__adddf3+0x378>
  804960:	00800804 	movi	r2,32
  804964:	10c5c83a 	sub	r2,r2,r3
  804968:	8884d83a 	srl	r2,r17,r2
  80496c:	98d0983a 	sll	r8,r19,r3
  804970:	88e2983a 	sll	r17,r17,r3
  804974:	1204b03a 	or	r2,r2,r8
  804978:	1c007416 	blt	r3,r16,804b4c <__adddf3+0x388>
  80497c:	1c21c83a 	sub	r16,r3,r16
  804980:	82000044 	addi	r8,r16,1
  804984:	00c007c4 	movi	r3,31
  804988:	1a009116 	blt	r3,r8,804bd0 <__adddf3+0x40c>
  80498c:	00c00804 	movi	r3,32
  804990:	1a07c83a 	sub	r3,r3,r8
  804994:	8a08d83a 	srl	r4,r17,r8
  804998:	88e2983a 	sll	r17,r17,r3
  80499c:	10c6983a 	sll	r3,r2,r3
  8049a0:	1210d83a 	srl	r8,r2,r8
  8049a4:	8804c03a 	cmpne	r2,r17,zero
  8049a8:	1906b03a 	or	r3,r3,r4
  8049ac:	18a2b03a 	or	r17,r3,r2
  8049b0:	0021883a 	mov	r16,zero
  8049b4:	003fa206 	br	804840 <__alt_mem_onchip_mem+0xff7fc840>
  8049b8:	1890b03a 	or	r8,r3,r2
  8049bc:	40017d26 	beq	r8,zero,804fb4 <__adddf3+0x7f0>
  8049c0:	1011883a 	mov	r8,r2
  8049c4:	1823883a 	mov	r17,r3
  8049c8:	888001cc 	andi	r2,r17,7
  8049cc:	103f9e1e 	bne	r2,zero,804848 <__alt_mem_onchip_mem+0xff7fc848>
  8049d0:	4004977a 	slli	r2,r8,29
  8049d4:	8822d0fa 	srli	r17,r17,3
  8049d8:	4010d0fa 	srli	r8,r8,3
  8049dc:	9007883a 	mov	r3,r18
  8049e0:	1444b03a 	or	r2,r2,r17
  8049e4:	0101ffc4 	movi	r4,2047
  8049e8:	81002426 	beq	r16,r4,804a7c <__adddf3+0x2b8>
  8049ec:	8120703a 	and	r16,r16,r4
  8049f0:	01000434 	movhi	r4,16
  8049f4:	213fffc4 	addi	r4,r4,-1
  8049f8:	4110703a 	and	r8,r8,r4
  8049fc:	003fa806 	br	8048a0 <__alt_mem_onchip_mem+0xff7fc8a0>
  804a00:	8089c83a 	sub	r4,r16,r2
  804a04:	01005e0e 	bge	zero,r4,804b80 <__adddf3+0x3bc>
  804a08:	10002b26 	beq	r2,zero,804ab8 <__adddf3+0x2f4>
  804a0c:	0081ffc4 	movi	r2,2047
  804a10:	80bf8b26 	beq	r16,r2,804840 <__alt_mem_onchip_mem+0xff7fc840>
  804a14:	4a402034 	orhi	r9,r9,128
  804a18:	00800e04 	movi	r2,56
  804a1c:	1100a40e 	bge	r2,r4,804cb0 <__adddf3+0x4ec>
  804a20:	498cb03a 	or	r6,r9,r6
  804a24:	300ac03a 	cmpne	r5,r6,zero
  804a28:	0013883a 	mov	r9,zero
  804a2c:	2c4b883a 	add	r5,r5,r17
  804a30:	2c63803a 	cmpltu	r17,r5,r17
  804a34:	4a11883a 	add	r8,r9,r8
  804a38:	8a11883a 	add	r8,r17,r8
  804a3c:	2823883a 	mov	r17,r5
  804a40:	4080202c 	andhi	r2,r8,128
  804a44:	103fe026 	beq	r2,zero,8049c8 <__alt_mem_onchip_mem+0xff7fc9c8>
  804a48:	84000044 	addi	r16,r16,1
  804a4c:	0081ffc4 	movi	r2,2047
  804a50:	8080d226 	beq	r16,r2,804d9c <__adddf3+0x5d8>
  804a54:	00bfe034 	movhi	r2,65408
  804a58:	10bfffc4 	addi	r2,r2,-1
  804a5c:	4090703a 	and	r8,r8,r2
  804a60:	880ad07a 	srli	r5,r17,1
  804a64:	400897fa 	slli	r4,r8,31
  804a68:	88c0004c 	andi	r3,r17,1
  804a6c:	28e2b03a 	or	r17,r5,r3
  804a70:	4010d07a 	srli	r8,r8,1
  804a74:	2462b03a 	or	r17,r4,r17
  804a78:	003f7106 	br	804840 <__alt_mem_onchip_mem+0xff7fc840>
  804a7c:	4088b03a 	or	r4,r8,r2
  804a80:	20014526 	beq	r4,zero,804f98 <__adddf3+0x7d4>
  804a84:	01000434 	movhi	r4,16
  804a88:	42000234 	orhi	r8,r8,8
  804a8c:	213fffc4 	addi	r4,r4,-1
  804a90:	4110703a 	and	r8,r8,r4
  804a94:	003f8206 	br	8048a0 <__alt_mem_onchip_mem+0xff7fc8a0>
  804a98:	18ffffc4 	addi	r3,r3,-1
  804a9c:	1800491e 	bne	r3,zero,804bc4 <__adddf3+0x400>
  804aa0:	898bc83a 	sub	r5,r17,r6
  804aa4:	8963803a 	cmpltu	r17,r17,r5
  804aa8:	4251c83a 	sub	r8,r8,r9
  804aac:	4451c83a 	sub	r8,r8,r17
  804ab0:	2823883a 	mov	r17,r5
  804ab4:	003f9f06 	br	804934 <__alt_mem_onchip_mem+0xff7fc934>
  804ab8:	4984b03a 	or	r2,r9,r6
  804abc:	103f6026 	beq	r2,zero,804840 <__alt_mem_onchip_mem+0xff7fc840>
  804ac0:	213fffc4 	addi	r4,r4,-1
  804ac4:	2000931e 	bne	r4,zero,804d14 <__adddf3+0x550>
  804ac8:	898d883a 	add	r6,r17,r6
  804acc:	3463803a 	cmpltu	r17,r6,r17
  804ad0:	4251883a 	add	r8,r8,r9
  804ad4:	8a11883a 	add	r8,r17,r8
  804ad8:	3023883a 	mov	r17,r6
  804adc:	003fd806 	br	804a40 <__alt_mem_onchip_mem+0xff7fca40>
  804ae0:	1800541e 	bne	r3,zero,804c34 <__adddf3+0x470>
  804ae4:	80800044 	addi	r2,r16,1
  804ae8:	1081ffcc 	andi	r2,r2,2047
  804aec:	00c00044 	movi	r3,1
  804af0:	1880a00e 	bge	r3,r2,804d74 <__adddf3+0x5b0>
  804af4:	8989c83a 	sub	r4,r17,r6
  804af8:	8905803a 	cmpltu	r2,r17,r4
  804afc:	4267c83a 	sub	r19,r8,r9
  804b00:	98a7c83a 	sub	r19,r19,r2
  804b04:	9880202c 	andhi	r2,r19,128
  804b08:	10006326 	beq	r2,zero,804c98 <__adddf3+0x4d4>
  804b0c:	3463c83a 	sub	r17,r6,r17
  804b10:	4a07c83a 	sub	r3,r9,r8
  804b14:	344d803a 	cmpltu	r6,r6,r17
  804b18:	19a7c83a 	sub	r19,r3,r6
  804b1c:	3825883a 	mov	r18,r7
  804b20:	983f8a1e 	bne	r19,zero,80494c <__alt_mem_onchip_mem+0xff7fc94c>
  804b24:	8809883a 	mov	r4,r17
  804b28:	0805c180 	call	805c18 <__clzsi2>
  804b2c:	10800804 	addi	r2,r2,32
  804b30:	10fffe04 	addi	r3,r2,-8
  804b34:	010007c4 	movi	r4,31
  804b38:	20ff890e 	bge	r4,r3,804960 <__alt_mem_onchip_mem+0xff7fc960>
  804b3c:	10bff604 	addi	r2,r2,-40
  804b40:	8884983a 	sll	r2,r17,r2
  804b44:	0023883a 	mov	r17,zero
  804b48:	1c3f8c0e 	bge	r3,r16,80497c <__alt_mem_onchip_mem+0xff7fc97c>
  804b4c:	023fe034 	movhi	r8,65408
  804b50:	423fffc4 	addi	r8,r8,-1
  804b54:	80e1c83a 	sub	r16,r16,r3
  804b58:	1210703a 	and	r8,r2,r8
  804b5c:	003f3806 	br	804840 <__alt_mem_onchip_mem+0xff7fc840>
  804b60:	9007883a 	mov	r3,r18
  804b64:	0011883a 	mov	r8,zero
  804b68:	0005883a 	mov	r2,zero
  804b6c:	003f4c06 	br	8048a0 <__alt_mem_onchip_mem+0xff7fc8a0>
  804b70:	498cb03a 	or	r6,r9,r6
  804b74:	300cc03a 	cmpne	r6,r6,zero
  804b78:	0007883a 	mov	r3,zero
  804b7c:	003f6806 	br	804920 <__alt_mem_onchip_mem+0xff7fc920>
  804b80:	20009c1e 	bne	r4,zero,804df4 <__adddf3+0x630>
  804b84:	80800044 	addi	r2,r16,1
  804b88:	1141ffcc 	andi	r5,r2,2047
  804b8c:	01000044 	movi	r4,1
  804b90:	2140670e 	bge	r4,r5,804d30 <__adddf3+0x56c>
  804b94:	0101ffc4 	movi	r4,2047
  804b98:	11007f26 	beq	r2,r4,804d98 <__adddf3+0x5d4>
  804b9c:	898d883a 	add	r6,r17,r6
  804ba0:	4247883a 	add	r3,r8,r9
  804ba4:	3451803a 	cmpltu	r8,r6,r17
  804ba8:	40d1883a 	add	r8,r8,r3
  804bac:	402297fa 	slli	r17,r8,31
  804bb0:	300cd07a 	srli	r6,r6,1
  804bb4:	4010d07a 	srli	r8,r8,1
  804bb8:	1021883a 	mov	r16,r2
  804bbc:	89a2b03a 	or	r17,r17,r6
  804bc0:	003f1f06 	br	804840 <__alt_mem_onchip_mem+0xff7fc840>
  804bc4:	0081ffc4 	movi	r2,2047
  804bc8:	80bf481e 	bne	r16,r2,8048ec <__alt_mem_onchip_mem+0xff7fc8ec>
  804bcc:	003f1c06 	br	804840 <__alt_mem_onchip_mem+0xff7fc840>
  804bd0:	843ff844 	addi	r16,r16,-31
  804bd4:	01000804 	movi	r4,32
  804bd8:	1406d83a 	srl	r3,r2,r16
  804bdc:	41005026 	beq	r8,r4,804d20 <__adddf3+0x55c>
  804be0:	01001004 	movi	r4,64
  804be4:	2211c83a 	sub	r8,r4,r8
  804be8:	1204983a 	sll	r2,r2,r8
  804bec:	88a2b03a 	or	r17,r17,r2
  804bf0:	8822c03a 	cmpne	r17,r17,zero
  804bf4:	1c62b03a 	or	r17,r3,r17
  804bf8:	0011883a 	mov	r8,zero
  804bfc:	0021883a 	mov	r16,zero
  804c00:	003f7106 	br	8049c8 <__alt_mem_onchip_mem+0xff7fc9c8>
  804c04:	193ff804 	addi	r4,r3,-32
  804c08:	00800804 	movi	r2,32
  804c0c:	4908d83a 	srl	r4,r9,r4
  804c10:	18804526 	beq	r3,r2,804d28 <__adddf3+0x564>
  804c14:	00801004 	movi	r2,64
  804c18:	10c5c83a 	sub	r2,r2,r3
  804c1c:	4886983a 	sll	r3,r9,r2
  804c20:	198cb03a 	or	r6,r3,r6
  804c24:	300cc03a 	cmpne	r6,r6,zero
  804c28:	218cb03a 	or	r6,r4,r6
  804c2c:	0007883a 	mov	r3,zero
  804c30:	003f3b06 	br	804920 <__alt_mem_onchip_mem+0xff7fc920>
  804c34:	80002a26 	beq	r16,zero,804ce0 <__adddf3+0x51c>
  804c38:	0101ffc4 	movi	r4,2047
  804c3c:	11006826 	beq	r2,r4,804de0 <__adddf3+0x61c>
  804c40:	00c7c83a 	sub	r3,zero,r3
  804c44:	42002034 	orhi	r8,r8,128
  804c48:	01000e04 	movi	r4,56
  804c4c:	20c07c16 	blt	r4,r3,804e40 <__adddf3+0x67c>
  804c50:	010007c4 	movi	r4,31
  804c54:	20c0da16 	blt	r4,r3,804fc0 <__adddf3+0x7fc>
  804c58:	01000804 	movi	r4,32
  804c5c:	20c9c83a 	sub	r4,r4,r3
  804c60:	4114983a 	sll	r10,r8,r4
  804c64:	88cad83a 	srl	r5,r17,r3
  804c68:	8908983a 	sll	r4,r17,r4
  804c6c:	40c6d83a 	srl	r3,r8,r3
  804c70:	5162b03a 	or	r17,r10,r5
  804c74:	2008c03a 	cmpne	r4,r4,zero
  804c78:	8922b03a 	or	r17,r17,r4
  804c7c:	3463c83a 	sub	r17,r6,r17
  804c80:	48c7c83a 	sub	r3,r9,r3
  804c84:	344d803a 	cmpltu	r6,r6,r17
  804c88:	1991c83a 	sub	r8,r3,r6
  804c8c:	1021883a 	mov	r16,r2
  804c90:	3825883a 	mov	r18,r7
  804c94:	003f2706 	br	804934 <__alt_mem_onchip_mem+0xff7fc934>
  804c98:	24d0b03a 	or	r8,r4,r19
  804c9c:	40001b1e 	bne	r8,zero,804d0c <__adddf3+0x548>
  804ca0:	0005883a 	mov	r2,zero
  804ca4:	0007883a 	mov	r3,zero
  804ca8:	0021883a 	mov	r16,zero
  804cac:	003f4d06 	br	8049e4 <__alt_mem_onchip_mem+0xff7fc9e4>
  804cb0:	008007c4 	movi	r2,31
  804cb4:	11003c16 	blt	r2,r4,804da8 <__adddf3+0x5e4>
  804cb8:	00800804 	movi	r2,32
  804cbc:	1105c83a 	sub	r2,r2,r4
  804cc0:	488e983a 	sll	r7,r9,r2
  804cc4:	310ad83a 	srl	r5,r6,r4
  804cc8:	3084983a 	sll	r2,r6,r2
  804ccc:	4912d83a 	srl	r9,r9,r4
  804cd0:	394ab03a 	or	r5,r7,r5
  804cd4:	1004c03a 	cmpne	r2,r2,zero
  804cd8:	288ab03a 	or	r5,r5,r2
  804cdc:	003f5306 	br	804a2c <__alt_mem_onchip_mem+0xff7fca2c>
  804ce0:	4448b03a 	or	r4,r8,r17
  804ce4:	20003e26 	beq	r4,zero,804de0 <__adddf3+0x61c>
  804ce8:	00c6303a 	nor	r3,zero,r3
  804cec:	18003a1e 	bne	r3,zero,804dd8 <__adddf3+0x614>
  804cf0:	3463c83a 	sub	r17,r6,r17
  804cf4:	4a07c83a 	sub	r3,r9,r8
  804cf8:	344d803a 	cmpltu	r6,r6,r17
  804cfc:	1991c83a 	sub	r8,r3,r6
  804d00:	1021883a 	mov	r16,r2
  804d04:	3825883a 	mov	r18,r7
  804d08:	003f0a06 	br	804934 <__alt_mem_onchip_mem+0xff7fc934>
  804d0c:	2023883a 	mov	r17,r4
  804d10:	003f0d06 	br	804948 <__alt_mem_onchip_mem+0xff7fc948>
  804d14:	0081ffc4 	movi	r2,2047
  804d18:	80bf3f1e 	bne	r16,r2,804a18 <__alt_mem_onchip_mem+0xff7fca18>
  804d1c:	003ec806 	br	804840 <__alt_mem_onchip_mem+0xff7fc840>
  804d20:	0005883a 	mov	r2,zero
  804d24:	003fb106 	br	804bec <__alt_mem_onchip_mem+0xff7fcbec>
  804d28:	0007883a 	mov	r3,zero
  804d2c:	003fbc06 	br	804c20 <__alt_mem_onchip_mem+0xff7fcc20>
  804d30:	4444b03a 	or	r2,r8,r17
  804d34:	8000871e 	bne	r16,zero,804f54 <__adddf3+0x790>
  804d38:	1000ba26 	beq	r2,zero,805024 <__adddf3+0x860>
  804d3c:	4984b03a 	or	r2,r9,r6
  804d40:	103ebf26 	beq	r2,zero,804840 <__alt_mem_onchip_mem+0xff7fc840>
  804d44:	8985883a 	add	r2,r17,r6
  804d48:	4247883a 	add	r3,r8,r9
  804d4c:	1451803a 	cmpltu	r8,r2,r17
  804d50:	40d1883a 	add	r8,r8,r3
  804d54:	40c0202c 	andhi	r3,r8,128
  804d58:	1023883a 	mov	r17,r2
  804d5c:	183f1a26 	beq	r3,zero,8049c8 <__alt_mem_onchip_mem+0xff7fc9c8>
  804d60:	00bfe034 	movhi	r2,65408
  804d64:	10bfffc4 	addi	r2,r2,-1
  804d68:	2021883a 	mov	r16,r4
  804d6c:	4090703a 	and	r8,r8,r2
  804d70:	003eb306 	br	804840 <__alt_mem_onchip_mem+0xff7fc840>
  804d74:	4444b03a 	or	r2,r8,r17
  804d78:	8000291e 	bne	r16,zero,804e20 <__adddf3+0x65c>
  804d7c:	10004b1e 	bne	r2,zero,804eac <__adddf3+0x6e8>
  804d80:	4990b03a 	or	r8,r9,r6
  804d84:	40008b26 	beq	r8,zero,804fb4 <__adddf3+0x7f0>
  804d88:	4811883a 	mov	r8,r9
  804d8c:	3023883a 	mov	r17,r6
  804d90:	3825883a 	mov	r18,r7
  804d94:	003eaa06 	br	804840 <__alt_mem_onchip_mem+0xff7fc840>
  804d98:	1021883a 	mov	r16,r2
  804d9c:	0011883a 	mov	r8,zero
  804da0:	0005883a 	mov	r2,zero
  804da4:	003f0f06 	br	8049e4 <__alt_mem_onchip_mem+0xff7fc9e4>
  804da8:	217ff804 	addi	r5,r4,-32
  804dac:	00800804 	movi	r2,32
  804db0:	494ad83a 	srl	r5,r9,r5
  804db4:	20807d26 	beq	r4,r2,804fac <__adddf3+0x7e8>
  804db8:	00801004 	movi	r2,64
  804dbc:	1109c83a 	sub	r4,r2,r4
  804dc0:	4912983a 	sll	r9,r9,r4
  804dc4:	498cb03a 	or	r6,r9,r6
  804dc8:	300cc03a 	cmpne	r6,r6,zero
  804dcc:	298ab03a 	or	r5,r5,r6
  804dd0:	0013883a 	mov	r9,zero
  804dd4:	003f1506 	br	804a2c <__alt_mem_onchip_mem+0xff7fca2c>
  804dd8:	0101ffc4 	movi	r4,2047
  804ddc:	113f9a1e 	bne	r2,r4,804c48 <__alt_mem_onchip_mem+0xff7fcc48>
  804de0:	4811883a 	mov	r8,r9
  804de4:	3023883a 	mov	r17,r6
  804de8:	1021883a 	mov	r16,r2
  804dec:	3825883a 	mov	r18,r7
  804df0:	003e9306 	br	804840 <__alt_mem_onchip_mem+0xff7fc840>
  804df4:	8000161e 	bne	r16,zero,804e50 <__adddf3+0x68c>
  804df8:	444ab03a 	or	r5,r8,r17
  804dfc:	28005126 	beq	r5,zero,804f44 <__adddf3+0x780>
  804e00:	0108303a 	nor	r4,zero,r4
  804e04:	20004d1e 	bne	r4,zero,804f3c <__adddf3+0x778>
  804e08:	89a3883a 	add	r17,r17,r6
  804e0c:	4253883a 	add	r9,r8,r9
  804e10:	898d803a 	cmpltu	r6,r17,r6
  804e14:	3251883a 	add	r8,r6,r9
  804e18:	1021883a 	mov	r16,r2
  804e1c:	003f0806 	br	804a40 <__alt_mem_onchip_mem+0xff7fca40>
  804e20:	1000301e 	bne	r2,zero,804ee4 <__adddf3+0x720>
  804e24:	4984b03a 	or	r2,r9,r6
  804e28:	10007126 	beq	r2,zero,804ff0 <__adddf3+0x82c>
  804e2c:	4811883a 	mov	r8,r9
  804e30:	3023883a 	mov	r17,r6
  804e34:	3825883a 	mov	r18,r7
  804e38:	0401ffc4 	movi	r16,2047
  804e3c:	003e8006 	br	804840 <__alt_mem_onchip_mem+0xff7fc840>
  804e40:	4462b03a 	or	r17,r8,r17
  804e44:	8822c03a 	cmpne	r17,r17,zero
  804e48:	0007883a 	mov	r3,zero
  804e4c:	003f8b06 	br	804c7c <__alt_mem_onchip_mem+0xff7fcc7c>
  804e50:	0141ffc4 	movi	r5,2047
  804e54:	11403b26 	beq	r2,r5,804f44 <__adddf3+0x780>
  804e58:	0109c83a 	sub	r4,zero,r4
  804e5c:	42002034 	orhi	r8,r8,128
  804e60:	01400e04 	movi	r5,56
  804e64:	29006716 	blt	r5,r4,805004 <__adddf3+0x840>
  804e68:	014007c4 	movi	r5,31
  804e6c:	29007016 	blt	r5,r4,805030 <__adddf3+0x86c>
  804e70:	01400804 	movi	r5,32
  804e74:	290bc83a 	sub	r5,r5,r4
  804e78:	4154983a 	sll	r10,r8,r5
  804e7c:	890ed83a 	srl	r7,r17,r4
  804e80:	894a983a 	sll	r5,r17,r5
  804e84:	4108d83a 	srl	r4,r8,r4
  804e88:	51e2b03a 	or	r17,r10,r7
  804e8c:	280ac03a 	cmpne	r5,r5,zero
  804e90:	8962b03a 	or	r17,r17,r5
  804e94:	89a3883a 	add	r17,r17,r6
  804e98:	2253883a 	add	r9,r4,r9
  804e9c:	898d803a 	cmpltu	r6,r17,r6
  804ea0:	3251883a 	add	r8,r6,r9
  804ea4:	1021883a 	mov	r16,r2
  804ea8:	003ee506 	br	804a40 <__alt_mem_onchip_mem+0xff7fca40>
  804eac:	4984b03a 	or	r2,r9,r6
  804eb0:	103e6326 	beq	r2,zero,804840 <__alt_mem_onchip_mem+0xff7fc840>
  804eb4:	8987c83a 	sub	r3,r17,r6
  804eb8:	88c9803a 	cmpltu	r4,r17,r3
  804ebc:	4245c83a 	sub	r2,r8,r9
  804ec0:	1105c83a 	sub	r2,r2,r4
  804ec4:	1100202c 	andhi	r4,r2,128
  804ec8:	203ebb26 	beq	r4,zero,8049b8 <__alt_mem_onchip_mem+0xff7fc9b8>
  804ecc:	3463c83a 	sub	r17,r6,r17
  804ed0:	4a07c83a 	sub	r3,r9,r8
  804ed4:	344d803a 	cmpltu	r6,r6,r17
  804ed8:	1991c83a 	sub	r8,r3,r6
  804edc:	3825883a 	mov	r18,r7
  804ee0:	003e5706 	br	804840 <__alt_mem_onchip_mem+0xff7fc840>
  804ee4:	4984b03a 	or	r2,r9,r6
  804ee8:	10002e26 	beq	r2,zero,804fa4 <__adddf3+0x7e0>
  804eec:	4004d0fa 	srli	r2,r8,3
  804ef0:	8822d0fa 	srli	r17,r17,3
  804ef4:	4010977a 	slli	r8,r8,29
  804ef8:	10c0022c 	andhi	r3,r2,8
  804efc:	4462b03a 	or	r17,r8,r17
  804f00:	18000826 	beq	r3,zero,804f24 <__adddf3+0x760>
  804f04:	4808d0fa 	srli	r4,r9,3
  804f08:	20c0022c 	andhi	r3,r4,8
  804f0c:	1800051e 	bne	r3,zero,804f24 <__adddf3+0x760>
  804f10:	300cd0fa 	srli	r6,r6,3
  804f14:	4806977a 	slli	r3,r9,29
  804f18:	2005883a 	mov	r2,r4
  804f1c:	3825883a 	mov	r18,r7
  804f20:	19a2b03a 	or	r17,r3,r6
  804f24:	8810d77a 	srli	r8,r17,29
  804f28:	100490fa 	slli	r2,r2,3
  804f2c:	882290fa 	slli	r17,r17,3
  804f30:	0401ffc4 	movi	r16,2047
  804f34:	4090b03a 	or	r8,r8,r2
  804f38:	003e4106 	br	804840 <__alt_mem_onchip_mem+0xff7fc840>
  804f3c:	0141ffc4 	movi	r5,2047
  804f40:	117fc71e 	bne	r2,r5,804e60 <__alt_mem_onchip_mem+0xff7fce60>
  804f44:	4811883a 	mov	r8,r9
  804f48:	3023883a 	mov	r17,r6
  804f4c:	1021883a 	mov	r16,r2
  804f50:	003e3b06 	br	804840 <__alt_mem_onchip_mem+0xff7fc840>
  804f54:	10002f26 	beq	r2,zero,805014 <__adddf3+0x850>
  804f58:	4984b03a 	or	r2,r9,r6
  804f5c:	10001126 	beq	r2,zero,804fa4 <__adddf3+0x7e0>
  804f60:	4004d0fa 	srli	r2,r8,3
  804f64:	8822d0fa 	srli	r17,r17,3
  804f68:	4010977a 	slli	r8,r8,29
  804f6c:	10c0022c 	andhi	r3,r2,8
  804f70:	4462b03a 	or	r17,r8,r17
  804f74:	183feb26 	beq	r3,zero,804f24 <__alt_mem_onchip_mem+0xff7fcf24>
  804f78:	4808d0fa 	srli	r4,r9,3
  804f7c:	20c0022c 	andhi	r3,r4,8
  804f80:	183fe81e 	bne	r3,zero,804f24 <__alt_mem_onchip_mem+0xff7fcf24>
  804f84:	300cd0fa 	srli	r6,r6,3
  804f88:	4806977a 	slli	r3,r9,29
  804f8c:	2005883a 	mov	r2,r4
  804f90:	19a2b03a 	or	r17,r3,r6
  804f94:	003fe306 	br	804f24 <__alt_mem_onchip_mem+0xff7fcf24>
  804f98:	0011883a 	mov	r8,zero
  804f9c:	0005883a 	mov	r2,zero
  804fa0:	003e3f06 	br	8048a0 <__alt_mem_onchip_mem+0xff7fc8a0>
  804fa4:	0401ffc4 	movi	r16,2047
  804fa8:	003e2506 	br	804840 <__alt_mem_onchip_mem+0xff7fc840>
  804fac:	0013883a 	mov	r9,zero
  804fb0:	003f8406 	br	804dc4 <__alt_mem_onchip_mem+0xff7fcdc4>
  804fb4:	0005883a 	mov	r2,zero
  804fb8:	0007883a 	mov	r3,zero
  804fbc:	003e8906 	br	8049e4 <__alt_mem_onchip_mem+0xff7fc9e4>
  804fc0:	197ff804 	addi	r5,r3,-32
  804fc4:	01000804 	movi	r4,32
  804fc8:	414ad83a 	srl	r5,r8,r5
  804fcc:	19002426 	beq	r3,r4,805060 <__adddf3+0x89c>
  804fd0:	01001004 	movi	r4,64
  804fd4:	20c7c83a 	sub	r3,r4,r3
  804fd8:	40c6983a 	sll	r3,r8,r3
  804fdc:	1c46b03a 	or	r3,r3,r17
  804fe0:	1806c03a 	cmpne	r3,r3,zero
  804fe4:	28e2b03a 	or	r17,r5,r3
  804fe8:	0007883a 	mov	r3,zero
  804fec:	003f2306 	br	804c7c <__alt_mem_onchip_mem+0xff7fcc7c>
  804ff0:	0007883a 	mov	r3,zero
  804ff4:	5811883a 	mov	r8,r11
  804ff8:	00bfffc4 	movi	r2,-1
  804ffc:	0401ffc4 	movi	r16,2047
  805000:	003e7806 	br	8049e4 <__alt_mem_onchip_mem+0xff7fc9e4>
  805004:	4462b03a 	or	r17,r8,r17
  805008:	8822c03a 	cmpne	r17,r17,zero
  80500c:	0009883a 	mov	r4,zero
  805010:	003fa006 	br	804e94 <__alt_mem_onchip_mem+0xff7fce94>
  805014:	4811883a 	mov	r8,r9
  805018:	3023883a 	mov	r17,r6
  80501c:	0401ffc4 	movi	r16,2047
  805020:	003e0706 	br	804840 <__alt_mem_onchip_mem+0xff7fc840>
  805024:	4811883a 	mov	r8,r9
  805028:	3023883a 	mov	r17,r6
  80502c:	003e0406 	br	804840 <__alt_mem_onchip_mem+0xff7fc840>
  805030:	21fff804 	addi	r7,r4,-32
  805034:	01400804 	movi	r5,32
  805038:	41ced83a 	srl	r7,r8,r7
  80503c:	21400a26 	beq	r4,r5,805068 <__adddf3+0x8a4>
  805040:	01401004 	movi	r5,64
  805044:	2909c83a 	sub	r4,r5,r4
  805048:	4108983a 	sll	r4,r8,r4
  80504c:	2448b03a 	or	r4,r4,r17
  805050:	2008c03a 	cmpne	r4,r4,zero
  805054:	3922b03a 	or	r17,r7,r4
  805058:	0009883a 	mov	r4,zero
  80505c:	003f8d06 	br	804e94 <__alt_mem_onchip_mem+0xff7fce94>
  805060:	0007883a 	mov	r3,zero
  805064:	003fdd06 	br	804fdc <__alt_mem_onchip_mem+0xff7fcfdc>
  805068:	0009883a 	mov	r4,zero
  80506c:	003ff706 	br	80504c <__alt_mem_onchip_mem+0xff7fd04c>

00805070 <__gedf2>:
  805070:	2804d53a 	srli	r2,r5,20
  805074:	3806d53a 	srli	r3,r7,20
  805078:	02000434 	movhi	r8,16
  80507c:	423fffc4 	addi	r8,r8,-1
  805080:	1081ffcc 	andi	r2,r2,2047
  805084:	0241ffc4 	movi	r9,2047
  805088:	2a14703a 	and	r10,r5,r8
  80508c:	18c1ffcc 	andi	r3,r3,2047
  805090:	3a10703a 	and	r8,r7,r8
  805094:	280ad7fa 	srli	r5,r5,31
  805098:	380ed7fa 	srli	r7,r7,31
  80509c:	12401d26 	beq	r2,r9,805114 <__gedf2+0xa4>
  8050a0:	0241ffc4 	movi	r9,2047
  8050a4:	1a401226 	beq	r3,r9,8050f0 <__gedf2+0x80>
  8050a8:	1000081e 	bne	r2,zero,8050cc <__gedf2+0x5c>
  8050ac:	2296b03a 	or	r11,r4,r10
  8050b0:	5813003a 	cmpeq	r9,r11,zero
  8050b4:	1800091e 	bne	r3,zero,8050dc <__gedf2+0x6c>
  8050b8:	3218b03a 	or	r12,r6,r8
  8050bc:	6000071e 	bne	r12,zero,8050dc <__gedf2+0x6c>
  8050c0:	0005883a 	mov	r2,zero
  8050c4:	5800101e 	bne	r11,zero,805108 <__gedf2+0x98>
  8050c8:	f800283a 	ret
  8050cc:	18000c1e 	bne	r3,zero,805100 <__gedf2+0x90>
  8050d0:	3212b03a 	or	r9,r6,r8
  8050d4:	48000c26 	beq	r9,zero,805108 <__gedf2+0x98>
  8050d8:	0013883a 	mov	r9,zero
  8050dc:	39c03fcc 	andi	r7,r7,255
  8050e0:	48000826 	beq	r9,zero,805104 <__gedf2+0x94>
  8050e4:	38000926 	beq	r7,zero,80510c <__gedf2+0x9c>
  8050e8:	00800044 	movi	r2,1
  8050ec:	f800283a 	ret
  8050f0:	3212b03a 	or	r9,r6,r8
  8050f4:	483fec26 	beq	r9,zero,8050a8 <__alt_mem_onchip_mem+0xff7fd0a8>
  8050f8:	00bfff84 	movi	r2,-2
  8050fc:	f800283a 	ret
  805100:	39c03fcc 	andi	r7,r7,255
  805104:	29c00626 	beq	r5,r7,805120 <__gedf2+0xb0>
  805108:	283ff726 	beq	r5,zero,8050e8 <__alt_mem_onchip_mem+0xff7fd0e8>
  80510c:	00bfffc4 	movi	r2,-1
  805110:	f800283a 	ret
  805114:	2292b03a 	or	r9,r4,r10
  805118:	483fe126 	beq	r9,zero,8050a0 <__alt_mem_onchip_mem+0xff7fd0a0>
  80511c:	003ff606 	br	8050f8 <__alt_mem_onchip_mem+0xff7fd0f8>
  805120:	18bff916 	blt	r3,r2,805108 <__alt_mem_onchip_mem+0xff7fd108>
  805124:	10c00316 	blt	r2,r3,805134 <__gedf2+0xc4>
  805128:	42bff736 	bltu	r8,r10,805108 <__alt_mem_onchip_mem+0xff7fd108>
  80512c:	52000326 	beq	r10,r8,80513c <__gedf2+0xcc>
  805130:	5200042e 	bgeu	r10,r8,805144 <__gedf2+0xd4>
  805134:	283fec1e 	bne	r5,zero,8050e8 <__alt_mem_onchip_mem+0xff7fd0e8>
  805138:	003ff406 	br	80510c <__alt_mem_onchip_mem+0xff7fd10c>
  80513c:	313ff236 	bltu	r6,r4,805108 <__alt_mem_onchip_mem+0xff7fd108>
  805140:	21bffc36 	bltu	r4,r6,805134 <__alt_mem_onchip_mem+0xff7fd134>
  805144:	0005883a 	mov	r2,zero
  805148:	f800283a 	ret

0080514c <__ledf2>:
  80514c:	2804d53a 	srli	r2,r5,20
  805150:	3810d53a 	srli	r8,r7,20
  805154:	00c00434 	movhi	r3,16
  805158:	18ffffc4 	addi	r3,r3,-1
  80515c:	1081ffcc 	andi	r2,r2,2047
  805160:	0241ffc4 	movi	r9,2047
  805164:	28d4703a 	and	r10,r5,r3
  805168:	4201ffcc 	andi	r8,r8,2047
  80516c:	38c6703a 	and	r3,r7,r3
  805170:	280ad7fa 	srli	r5,r5,31
  805174:	380ed7fa 	srli	r7,r7,31
  805178:	12401f26 	beq	r2,r9,8051f8 <__ledf2+0xac>
  80517c:	0241ffc4 	movi	r9,2047
  805180:	42401426 	beq	r8,r9,8051d4 <__ledf2+0x88>
  805184:	1000091e 	bne	r2,zero,8051ac <__ledf2+0x60>
  805188:	2296b03a 	or	r11,r4,r10
  80518c:	5813003a 	cmpeq	r9,r11,zero
  805190:	29403fcc 	andi	r5,r5,255
  805194:	40000a1e 	bne	r8,zero,8051c0 <__ledf2+0x74>
  805198:	30d8b03a 	or	r12,r6,r3
  80519c:	6000081e 	bne	r12,zero,8051c0 <__ledf2+0x74>
  8051a0:	0005883a 	mov	r2,zero
  8051a4:	5800111e 	bne	r11,zero,8051ec <__ledf2+0xa0>
  8051a8:	f800283a 	ret
  8051ac:	29403fcc 	andi	r5,r5,255
  8051b0:	40000c1e 	bne	r8,zero,8051e4 <__ledf2+0x98>
  8051b4:	30d2b03a 	or	r9,r6,r3
  8051b8:	48000c26 	beq	r9,zero,8051ec <__ledf2+0xa0>
  8051bc:	0013883a 	mov	r9,zero
  8051c0:	39c03fcc 	andi	r7,r7,255
  8051c4:	48000826 	beq	r9,zero,8051e8 <__ledf2+0x9c>
  8051c8:	38001126 	beq	r7,zero,805210 <__ledf2+0xc4>
  8051cc:	00800044 	movi	r2,1
  8051d0:	f800283a 	ret
  8051d4:	30d2b03a 	or	r9,r6,r3
  8051d8:	483fea26 	beq	r9,zero,805184 <__alt_mem_onchip_mem+0xff7fd184>
  8051dc:	00800084 	movi	r2,2
  8051e0:	f800283a 	ret
  8051e4:	39c03fcc 	andi	r7,r7,255
  8051e8:	39400726 	beq	r7,r5,805208 <__ledf2+0xbc>
  8051ec:	2800081e 	bne	r5,zero,805210 <__ledf2+0xc4>
  8051f0:	00800044 	movi	r2,1
  8051f4:	f800283a 	ret
  8051f8:	2292b03a 	or	r9,r4,r10
  8051fc:	483fdf26 	beq	r9,zero,80517c <__alt_mem_onchip_mem+0xff7fd17c>
  805200:	00800084 	movi	r2,2
  805204:	f800283a 	ret
  805208:	4080030e 	bge	r8,r2,805218 <__ledf2+0xcc>
  80520c:	383fef26 	beq	r7,zero,8051cc <__alt_mem_onchip_mem+0xff7fd1cc>
  805210:	00bfffc4 	movi	r2,-1
  805214:	f800283a 	ret
  805218:	123feb16 	blt	r2,r8,8051c8 <__alt_mem_onchip_mem+0xff7fd1c8>
  80521c:	1abff336 	bltu	r3,r10,8051ec <__alt_mem_onchip_mem+0xff7fd1ec>
  805220:	50c00326 	beq	r10,r3,805230 <__ledf2+0xe4>
  805224:	50c0042e 	bgeu	r10,r3,805238 <__ledf2+0xec>
  805228:	283fe81e 	bne	r5,zero,8051cc <__alt_mem_onchip_mem+0xff7fd1cc>
  80522c:	003ff806 	br	805210 <__alt_mem_onchip_mem+0xff7fd210>
  805230:	313fee36 	bltu	r6,r4,8051ec <__alt_mem_onchip_mem+0xff7fd1ec>
  805234:	21bffc36 	bltu	r4,r6,805228 <__alt_mem_onchip_mem+0xff7fd228>
  805238:	0005883a 	mov	r2,zero
  80523c:	f800283a 	ret

00805240 <__subdf3>:
  805240:	02000434 	movhi	r8,16
  805244:	423fffc4 	addi	r8,r8,-1
  805248:	defffb04 	addi	sp,sp,-20
  80524c:	2a14703a 	and	r10,r5,r8
  805250:	3812d53a 	srli	r9,r7,20
  805254:	3a10703a 	and	r8,r7,r8
  805258:	2006d77a 	srli	r3,r4,29
  80525c:	3004d77a 	srli	r2,r6,29
  805260:	dc000015 	stw	r16,0(sp)
  805264:	501490fa 	slli	r10,r10,3
  805268:	2820d53a 	srli	r16,r5,20
  80526c:	401090fa 	slli	r8,r8,3
  805270:	dc800215 	stw	r18,8(sp)
  805274:	dc400115 	stw	r17,4(sp)
  805278:	dfc00415 	stw	ra,16(sp)
  80527c:	202290fa 	slli	r17,r4,3
  805280:	dcc00315 	stw	r19,12(sp)
  805284:	4a41ffcc 	andi	r9,r9,2047
  805288:	0101ffc4 	movi	r4,2047
  80528c:	2824d7fa 	srli	r18,r5,31
  805290:	8401ffcc 	andi	r16,r16,2047
  805294:	50c6b03a 	or	r3,r10,r3
  805298:	380ed7fa 	srli	r7,r7,31
  80529c:	408ab03a 	or	r5,r8,r2
  8052a0:	300c90fa 	slli	r6,r6,3
  8052a4:	49009626 	beq	r9,r4,805500 <__subdf3+0x2c0>
  8052a8:	39c0005c 	xori	r7,r7,1
  8052ac:	8245c83a 	sub	r2,r16,r9
  8052b0:	3c807426 	beq	r7,r18,805484 <__subdf3+0x244>
  8052b4:	0080af0e 	bge	zero,r2,805574 <__subdf3+0x334>
  8052b8:	48002a1e 	bne	r9,zero,805364 <__subdf3+0x124>
  8052bc:	2988b03a 	or	r4,r5,r6
  8052c0:	20009a1e 	bne	r4,zero,80552c <__subdf3+0x2ec>
  8052c4:	888001cc 	andi	r2,r17,7
  8052c8:	10000726 	beq	r2,zero,8052e8 <__subdf3+0xa8>
  8052cc:	888003cc 	andi	r2,r17,15
  8052d0:	01000104 	movi	r4,4
  8052d4:	11000426 	beq	r2,r4,8052e8 <__subdf3+0xa8>
  8052d8:	890b883a 	add	r5,r17,r4
  8052dc:	2c63803a 	cmpltu	r17,r5,r17
  8052e0:	1c47883a 	add	r3,r3,r17
  8052e4:	2823883a 	mov	r17,r5
  8052e8:	1880202c 	andhi	r2,r3,128
  8052ec:	10005926 	beq	r2,zero,805454 <__subdf3+0x214>
  8052f0:	84000044 	addi	r16,r16,1
  8052f4:	0081ffc4 	movi	r2,2047
  8052f8:	8080be26 	beq	r16,r2,8055f4 <__subdf3+0x3b4>
  8052fc:	017fe034 	movhi	r5,65408
  805300:	297fffc4 	addi	r5,r5,-1
  805304:	1946703a 	and	r3,r3,r5
  805308:	1804977a 	slli	r2,r3,29
  80530c:	1806927a 	slli	r3,r3,9
  805310:	8822d0fa 	srli	r17,r17,3
  805314:	8401ffcc 	andi	r16,r16,2047
  805318:	180ad33a 	srli	r5,r3,12
  80531c:	9100004c 	andi	r4,r18,1
  805320:	1444b03a 	or	r2,r2,r17
  805324:	80c1ffcc 	andi	r3,r16,2047
  805328:	1820953a 	slli	r16,r3,20
  80532c:	20c03fcc 	andi	r3,r4,255
